(dp0
S'PODIATRY'
p1
(lp2
(lp3
Vtoe
p4
acnumpy.core.multiarray
scalar
p5
(cnumpy
dtype
p6
(S'f8'
p7
I0
I1
tp8
Rp9
(I3
S'<'
p10
NNNI-1
I-1
I0
tp11
bS'\xdc\xac\xdf\xb7S\x10\xd3?'
p12
tp13
Rp14
aa(lp15
Vnail
p16
ag5
(g9
S'\xb1\xb0\xa0\x16\x8c\x87\xd0?'
p17
tp18
Rp19
aa(lp20
Vtissue
p21
ag5
(g9
S'{\xdb\xf6\xfbA>\xc7?'
p22
tp23
Rp24
aa(lp25
Vtypically
p26
ag5
(g9
S'H\xb3\xea\x05\x13\xa6\xd2?'
p27
tp28
Rp29
aa(lp30
Vvisit
p31
ag5
(g9
S'E\x94?~\xbf\xcc\xd1?'
p32
tp33
Rp34
aa(lp35
Vminutes
p36
ag5
(g9
S'\x0e\xd0\x8a\x11\xc5\xfa\xd0?'
p37
tp38
Rp39
aa(lp40
Vpatient
p41
ag5
(g9
S'r\xd2a\x8f\xecv\xcd?'
p42
tp43
Rp44
aa(lp45
Voffice
p46
ag5
(g9
S'\xca\xa1\x0cz\x99"\xcc?'
p47
tp48
Rp49
aa(lp50
Voutpatient
p51
ag5
(g9
S'\xa6\x1d\xf8\x13\x1b\xd9\xcb?'
p52
tp53
Rp54
aa(lp55
Vestablished
p56
ag5
(g9
S'\xad:\xdb\xe1\x19Y\xc3?'
p57
tp58
Rp59
aa(lp60
Vfoot
p61
ag5
(g9
S'\x0cM\xa0\x82\xcc\xc8\xc2?'
p62
tp63
Rp64
aa(lp65
Vnew
p66
ag5
(g9
S'\xe5\x95x\xbd8-\xbb?'
p67
tp68
Rp69
aa(lp70
Vinjection
p71
ag5
(g9
S'\xf0\xfd@\x92M\x9e\xb8?'
p72
tp73
Rp74
aa(lp75
Vremoval
p76
ag5
(g9
S'\x12j\xe8\x82Ek\xd3?'
p77
tp78
Rp79
aa(lp80
Vnails
p81
ag5
(g9
S'\xa2\xe0\x00\x7fIm\xd2?'
p82
tp83
Rp84
aa(lp85
Vthickened
p86
ag5
(g9
S'\xae\\\xc2\xd7\x1a\xaf\xce?'
p87
tp88
Rp89
aa(lp90
Vskin
p91
ag5
(g9
S'\x14\xf4\xd0q\xb6{\xc7?'
p92
tp93
Rp94
aa(lp95
Vgrowths
p96
ag5
(g9
S'P\xa9{\x9f\xb8J\xbc?'
p97
tp98
Rp99
aa(lp100
Vbed
p101
ag5
(g9
S'xK\xa91\x1bF\xbc?'
p102
tp103
Rp104
aa(lp105
Vviews
p106
ag5
(g9
S'\xd9*\xab\xd0>t\xb9?'
p107
tp108
Rp109
aa(lp110
Vfinger
p111
ag5
(g9
S'\xf0]#U$\xb8\xcb?'
p112
tp113
Rp114
aasS'CARDIAC ELECTROPHYSIOLOGY'
p115
(lp116
(lp117
Vpacemaker
p118
ag5
(g9
S'\xec\x84\xbbG\x9e\x1e\xcd?'
p119
tp120
Rp121
aa(lp122
Vevaluation
p123
ag5
(g9
S'b"\x9e\x1ekp\xcc?'
p124
tp125
Rp126
aa(lp127
Vpermanent
p128
ag5
(g9
S'\xb8}D\x1bv\xb4\xcb?'
p129
tp130
Rp131
aa(lp132
Vdays
p133
ag5
(g9
S'F\xdeY\xe4\xb1\x10\xc0?'
p134
tp135
Rp136
aa(lp137
Vlead
p138
ag5
(g9
S'wX>\x10\xac\x86\xd8?'
p139
tp140
Rp141
aa(lp142
Vdual
p143
ag5
(g9
S'\xec\x87;\xfe\x82\xd2\xd4?'
p144
tp145
Rp146
aa(lp147
Vheart
p148
ag5
(g9
S'#z\x80\r\x81\xdb\xcd?'
p149
tp150
Rp151
aa(lp152
Vsingle
p153
ag5
(g9
S'\xdfZ\x02\x86\x93\xe2\xc6?'
p154
tp155
Rp156
aa(lp157
Vmultiple
p158
ag5
(g9
S'\xd6V\xdfGz(\xc1?'
p159
tp160
Rp161
aa(lp162
Vreview
p163
ag5
(g9
S'r\xf9>(~\xe0\xc9?'
p164
tp165
Rp166
aa(lp167
Vanalysis
p168
ag5
(g9
S'\xdeP\x1b-\x9d\xa9\xc7?'
p169
tp170
Rp171
aa(lp172
Vreport
p173
ag5
(g9
S'\xe7\x10\xaa\x7f\x8b\x96\xc7?'
p174
tp175
Rp176
aa(lp177
Vphysician
p178
ag5
(g9
S'\xd2\xb9\x01\x81Y:\xc6?'
p179
tp180
Rp181
aa(lp182
Vtesting
p183
ag5
(g9
S'\xa8\xba\x91)~*\xc0?'
p184
tp185
Rp186
aa(lp187
Vcardioverterdefibrillator
p188
ag5
(g9
S'\xb5\xa7\xde\xf8\xc52\xcf?'
p189
tp190
Rp191
aa(lp192
Vadjustment
p193
ag5
(g9
S'H\xf8\x15F\xbb\xb4\xcb?'
p194
tp195
Rp196
aa(lp197
Vprogramming
p198
ag5
(g9
S'Cj\x04\xa3w\xe9\xc5?'
p199
tp200
Rp201
aa(lp202
Vpacing
p203
ag5
(g9
S'\xf6\xc7*\x84\x91W\xc3?'
p204
tp205
Rp206
aa(lp207
Vtypically
p208
ag5
(g9
S'\xddZ\x1b<0\xfb\xc2?'
p209
tp210
Rp211
aa(lp212
Vminutes
p213
ag5
(g9
S'\xb8L\x10F\x15\x02\xc2?'
p214
tp215
Rp216
aa(lp217
Vincluding
p218
ag5
(g9
S'X\x1b\x92uN\xe8\xc0?'
p219
tp220
Rp221
aasS'RHEUMATOLOGY'
p222
(lp223
(lp224
Vminutes
p225
ag5
(g9
S'\x91\xb5\x1c\x1a\xf5\xf8\xd1?'
p226
tp227
Rp228
aa(lp229
Vaspiration
p230
ag5
(g9
S'Bw^\xd6\x8c$\xbf?'
p231
tp232
Rp233
aa(lp234
Vvein
p235
ag5
(g9
S'\xab\x9c\xca\x87\xc4^\xbc?'
p236
tp237
Rp238
aa(lp239
Vinfusion
p240
ag5
(g9
S'q/\xe1\xe4\xa1\n\xbb?'
p241
tp242
Rp243
aa(lp244
g26
ag5
(g9
S'b\x81\xee\x15\xfbv\xd3?'
p245
tp246
Rp247
aa(lp248
g46
ag5
(g9
S'\x1dZc\x80+*\xd2?'
p249
tp250
Rp251
aa(lp252
g31
ag5
(g9
S"\xf8B\xe8\xeb['\xd2?"
p253
tp254
Rp255
aa(lp256
g51
ag5
(g9
S')\xb3+z\xb8\xfa\xd1?'
p257
tp258
Rp259
aa(lp260
g41
ag5
(g9
S'\xee\xa1\x1f`jU\xd0?'
p261
tp262
Rp263
aa(lp264
g56
ag5
(g9
S'-\xdf\xa8_\xf4+\xc7?'
p265
tp266
Rp267
aa(lp268
Vblood
p269
ag5
(g9
S'D\xf3\xff\xb2LM\xc3?'
p270
tp271
Rp272
aa(lp273
Vlevel
p274
ag5
(g9
S'8\x8b0hQ\x87\xb8?'
p275
tp276
Rp277
aa(lp278
Vinjection
p279
ag5
(g9
S'"E1_&a\xd7?'
p280
tp281
Rp282
aa(lp283
Vmg
p284
ag5
(g9
S'\xac\x15\x16\xa1:~\xcb?'
p285
tp286
Rp287
aa(lp288
Vchemotherapy
p289
ag5
(g9
S'\xf1\x84\xeb5q\x87\xbb?'
p290
tp291
Rp292
aa(lp293
Vmethylprednisolone
p294
ag5
(g9
S'\xa4\xdc\xd6\x01\x04\x8a\xb5?'
p295
tp296
Rp297
aa(lp298
Vjoint
p299
ag5
(g9
S'7>\x08Ex\x0c\xd1?'
p300
tp301
Rp302
aa(lp303
Vxray
p304
ag5
(g9
S't\xda)\x83\xd3\x90\xc2?'
p305
tp306
Rp307
aa(lp308
Vcapsule
p309
ag5
(g9
S'{\x91\xe0(\xd5B\xc2?'
p310
tp311
Rp312
aa(lp313
Vviews
p314
ag5
(g9
S'\x1ew\xa8\xa1\xf9\xb2\xbe?'
p315
tp316
Rp317
aa(lp318
Vnew
p319
ag5
(g9
S'\xa1O\xccM9\x1e\xbb?'
p320
tp321
Rp322
aa(lp323
Vmeasurement
p324
ag5
(g9
S'\x8e\x91xR\x98M\xb7?'
p325
tp326
Rp327
aasS'PULMONARY DISEASE'
p328
(lp329
(lp330
Vday
p331
ag5
(g9
S'\xcb\xd0\xaf\x80q\xe5\xca?'
p332
tp333
Rp334
aa(lp335
Vsleep
p336
ag5
(g9
S'\x94\x07\x91\x94n\t\xc6?'
p337
tp338
Rp339
aa(lp340
Vmeasurement
p341
ag5
(g9
S';9\xad\rp]\xc4?'
p342
tp343
Rp344
aa(lp345
Vusing
p346
ag5
(g9
S'\xc8G\x1c-\x0bC\xba?'
p347
tp348
Rp349
aa(lp350
g36
ag5
(g9
S'\x1e\xea\xeb@\xd1~\xd8?'
p351
tp352
Rp353
aa(lp354
g26
ag5
(g9
S'\xe1\x0f\x94\x88;\xdf\xd6?'
p355
tp356
Rp357
aa(lp358
g31
ag5
(g9
S'\xe6\x1e\xb2w^s\xc8?'
p359
tp360
Rp361
aa(lp362
g46
ag5
(g9
S';\x9d\xc3Y\x01}\xc7?'
p363
tp364
Rp365
aa(lp366
g51
ag5
(g9
S"5\xcf'_\xa6?\xc7?"
p367
tp368
Rp369
aa(lp370
Vgraphic
p371
ag5
(g9
S"I\xea';\xdfs\xc2?"
p372
tp373
Rp374
aa(lp375
Vair
p376
ag5
(g9
S'!{\xc8Q\xe3i\xc2?'
p377
tp378
Rp379
aa(lp380
g56
ag5
(g9
S'l0\xe0\xb9\x00Y\xbe?'
p381
tp382
Rp383
aa(lp384
Vdetermination
p385
ag5
(g9
S'\xc1l\x1fc\x1a \xba?'
p386
tp387
Rp388
aa(lp389
Vpatient
p390
ag5
(g9
S'6\xcb\xfa\xfa\xf7\x8f\xcf?'
p391
tp392
Rp393
aa(lp394
Vcare
p395
ag5
(g9
S'\xe6\xc4\xe4\x07i\x02\xcd?'
p396
tp397
Rp398
aa(lp399
Vhospital
p400
ag5
(g9
S'\x1a\x06\x86\x99\xab\xef\xc9?'
p401
tp402
Rp403
aa(lp404
Vinpatient
p405
ag5
(g9
S'JH0\xb1\xca+\xc8?'
p406
tp407
Rp408
aa(lp409
Vcapacity
p410
ag5
(g9
S'\xff\x06\xdefT\x7f\xc0?'
p411
tp412
Rp413
aa(lp414
Vlung
p415
ag5
(g9
S'Bm\x0b\xbaQc\xd0?'
p416
tp417
Rp418
aa(lp419
Vvolumes
p420
ag5
(g9
S'0\xd9\x14\xb9\xc1\xfe\xbe?'
p421
tp422
Rp423
aa(lp424
Vdiffusing
p425
ag5
(g9
S'\x82\xe2\xba\x88\xb5\xcb\xbd?'
p426
tp427
Rp428
aa(lp429
Vsubsequent
p430
ag5
(g9
S'u\xcbBnh\x12\xbd?'
p431
tp432
Rp433
aasS'MULTISPECIALTY CLINIC/GROUP PRACTICE'
p434
(lp435
(lp436
g225
ag5
(g9
S'\x92\x93<-Q\xec\xda?'
p437
tp438
Rp439
aa(lp440
Vtypically
p441
ag5
(g9
S'^?)E\xdcb\xd7?'
p442
tp443
Rp444
aa(lp445
g331
ag5
(g9
S'\xd0\xd2\x8f\x89\xf4\xd6\xd5?'
p446
tp447
Rp448
aa(lp449
Vhospital
p450
ag5
(g9
S'\xab\xbc\xc1\xe9P\xfc\xd1?'
p451
tp452
Rp453
aa(lp454
Vcare
p455
ag5
(g9
S',\x16\xf0\x1d\x93>\xd1?'
p456
tp457
Rp458
aa(lp459
Vsubsequent
p460
ag5
(g9
S'\xd2h2\x06\x89\xa2\xc8?'
p461
tp462
Rp463
aa(lp464
Vinpatient
p465
ag5
(g9
S']-\xc3\x8e\xe9^\xc7?'
p466
tp467
Rp468
aa(lp469
Vdischarge
p470
ag5
(g9
S'\x90x^\xedo\xad\xbf?'
p471
tp472
Rp473
aa(lp474
Vinitial
p475
ag5
(g9
S'\x1cS\x03\xf6~~\xbf?'
p476
tp477
Rp478
aa(lp479
Vnursing
p480
ag5
(g9
S'm\nSO\x83\xe2\xba?'
p481
tp482
Rp483
aa(lp484
Vfacility
p485
ag5
(g9
S'm\nSO\x83\xe2\xba?'
p486
tp487
Rp488
aa(lp489
Vhealth
p490
ag5
(g9
S'5\x85\x960\x81-\xb5?'
p491
tp492
Rp493
aa(lp494
Vtest
p495
ag5
(g9
S'T\xc8d\xc8\x88$\xd5?'
p496
tp497
Rp498
aa(lp499
g269
ag5
(g9
S'G\x10r\xa3*\xc3\xd1?'
p500
tp501
Rp502
aa(lp503
g31
ag5
(g9
S'g\\\xc2A\xc1\xcb\xcf?'
p504
tp505
Rp506
aa(lp507
g41
ag5
(g9
S'\xb7\xc8\xd7\xc9\x94\xcf\xc9?'
p508
tp509
Rp510
aa(lp511
g46
ag5
(g9
S'\xf3\x85i$\xc0\x17\xc8?'
p512
tp513
Rp514
aa(lp515
g51
ag5
(g9
S'M\xc5Q\xf1\xd0\xd8\xc7?'
p516
tp517
Rp518
aa(lp519
g274
ag5
(g9
S' 9\xbbg\xf1\xca\xc4?'
p520
tp521
Rp522
aa(lp523
g71
ag5
(g9
S'\t\xbc\x94E;\x94\xc4?'
p524
tp525
Rp526
aa(lp527
Vspine
p528
ag5
(g9
S'\xcf$\xc6&v^\xc2?'
p529
tp530
Rp531
aa(lp532
Vmg
p533
ag5
(g9
S'\x196\xcb\x9d\xf8\xef\xc0?'
p534
tp535
Rp536
aa(lp537
Vscreening
p538
ag5
(g9
S'\xb64\xffTo\x04\xc0?'
p539
tp540
Rp541
aa(lp542
g56
ag5
(g9
S'g\\\xc2A\xc1\xcb\xbf?'
p543
tp544
Rp545
aa(lp546
Vbone
p547
ag5
(g9
S'\x11\xb1\xc6ZW\x0b\xbc?'
p548
tp549
Rp550
aa(lp551
Vspinal
p552
ag5
(g9
S':\x88\x11\x01X\xa7\xb8?'
p553
tp554
Rp555
aa(lp556
Vcervical
p557
ag5
(g9
S'\xba\xb8\xee\x00U\xc6\xb7?'
p558
tp559
Rp560
aa(lp561
Vsmear
p562
ag5
(g9
S'\xcd\x9f\xb0\xb6\x1d\xd2\xb6?'
p563
tp564
Rp565
aa(lp566
Vemergency
p567
ag5
(g9
S'\x02\xf3+\xf0]\xd9\xcc?'
p568
tp569
Rp570
aa(lp571
Vdepartment
p572
ag5
(g9
S'\x02\xf3+\xf0]\xd9\xcc?'
p573
tp574
Rp575
aa(lp576
Vproblem
p577
ag5
(g9
S'wsl\x00\xad8\xcb?'
p578
tp579
Rp580
aa(lp581
Vvirus
p582
ag5
(g9
S'|\x9f\xee\x1d|D\xc7?'
p583
tp584
Rp585
aa(lp586
Velectrocardiogram
p587
ag5
(g9
S'*\x97rq\x15.\xc1?'
p588
tp589
Rp590
aa(lp591
Vvaccine
p592
ag5
(g9
S'Z\xf4\\\xd1\r\xcd\xbf?'
p593
tp594
Rp595
aa(lp596
Vintermediate
p597
ag5
(g9
S'Z\xf4\\\xd1\r\xcd\xbf?'
p598
tp599
Rp600
aa(lp601
Vleads
p602
ag5
(g9
S'P\x7f\x93\xd2\xfa\x05\xbf?'
p603
tp604
Rp605
aa(lp606
Vjoint
p607
ag5
(g9
S'P\x7f\x93\xd2\xfa\x05\xbf?'
p608
tp609
Rp610
aa(lp611
Vinfluenza
p612
ag5
(g9
S'P\x7f\x93\xd2\xfa\x05\xbf?'
p613
tp614
Rp615
aa(lp616
Vcomplexity
p617
ag5
(g9
S'P\x7f\x93\xd2\xfa\x05\xbf?'
p618
tp619
Rp620
aa(lp621
Vradiation
p622
ag5
(g9
S'\x06Z{\xa2\x89\x1e\xe0?'
p623
tp624
Rp625
aa(lp626
Vtherapy
p627
ag5
(g9
S'\x9d\xd5\xc9\xb0?%\xd0?'
p628
tp629
Rp630
aa(lp631
Vbrachytherapy
p632
ag5
(g9
S'=\xa54RX%\xc8?'
p633
tp634
Rp635
aa(lp636
Vmanagement
p637
ag5
(g9
S'\xdc\xd3\x97\xf0F\xf4\xc7?'
p638
tp639
Rp640
aa(lp641
Vdesign
p642
ag5
(g9
S',\x1b.\x9cb&\xc4?'
p643
tp644
Rp645
aa(lp646
Vconstruction
p647
ag5
(g9
S',\x1b.\x9cb&\xc4?'
p648
tp649
Rp650
aa(lp651
Vlinear
p652
ag5
(g9
S'\x04#x\xed\xf03\xc1?'
p653
tp654
Rp655
aa(lp656
Vfractionated
p657
ag5
(g9
S'\x04#x\xed\xf03\xc1?'
p658
tp659
Rp660
aa(lp661
Vacceleratorbased
p662
ag5
(g9
S'\x04#x\xed\xf03\xc1?'
p663
tp664
Rp665
aa(lp666
Vsimple
p667
ag5
(g9
S"\x19\x91'\xe6l'\xc0?"
p668
tp669
Rp670
aa(lp671
Vradiosurgery
p672
ag5
(g9
S'\xd4\x18#\x8c\xe5\x18\xc0?'
p673
tp674
Rp675
aa(lp676
Vcourse
p677
ag5
(g9
S'\xd4\x18#\x8c\xe5\x18\xc0?'
p678
tp679
Rp680
aa(lp681
Vsession
p682
ag5
(g9
S'\xb3\xc0&\xa9\xe8\x9b\xbf?'
p683
tp684
Rp685
aa(lp686
Vcomplex
p687
ag5
(g9
S'\xc9\x9bY\xb8\x8a0\xbe?'
p688
tp689
Rp690
aa(lp691
Vsessions
p692
ag5
(g9
S'\xef\x8d\xe7\x92\xef\x13\xbd?'
p693
tp694
Rp695
aasS'OBSTETRICS/GYNECOLOGY'
p696
(lp697
(lp698
Vvisit
p699
ag5
(g9
S'\x96\xf4\x01\xcb\xf9\xeb\xd0?'
p700
tp701
Rp702
aa(lp703
Voffice
p704
ag5
(g9
S'`\x85\x97Co\xd6\xcf?'
p705
tp706
Rp707
aa(lp708
Voutpatient
p709
ag5
(g9
S'U\xa1\x84\n\x17\x82\xcf?'
p710
tp711
Rp712
aa(lp713
g225
ag5
(g9
S'\x03\x0e\xdf\xeb\x1c\xd6\xcc?'
p714
tp715
Rp716
aa(lp717
Vpatient
p718
ag5
(g9
S'{\xb4\xe0?8b\xcc?'
p719
tp720
Rp721
aa(lp722
Vestablished
p723
ag5
(g9
S'c \x00\xce\x9f\xa9\xc8?'
p724
tp725
Rp726
aa(lp727
Vvaginal
p728
ag5
(g9
S'[$\xe5\x19\xa0\xef\xd4?'
p729
tp730
Rp731
aa(lp732
Vcancer
p733
ag5
(g9
S'\xac\x0e\x97.\x0f\xa5\xc5?'
p734
tp735
Rp736
aa(lp737
Vcervical
p738
ag5
(g9
S'\xe8\xd8\xfe\xc1\x97\x8f\xd5?'
p739
tp740
Rp741
aa(lp742
Vsmear
p743
ag5
(g9
S'\xb0\xb1\x08f\xe6.\xd3?'
p744
tp745
Rp746
aa(lp747
Vpreparing
p748
ag5
(g9
S'\x06\xbd\x86#\xa7$\xc6?'
p749
tp750
Rp751
aa(lp752
Vconveyance
p753
ag5
(g9
S'\x06\xbd\x86#\xa7$\xc6?'
p754
tp755
Rp756
aa(lp757
Vpapanicolaou
p758
ag5
(g9
S'\xd5\xf5:\x86\r\x80\xc5?'
p759
tp760
Rp761
aa(lp762
Vobtaining
p763
ag5
(g9
S'\xd5\xf5:\x86\r\x80\xc5?'
p764
tp765
Rp766
aa(lp767
Vlaboratory
p768
ag5
(g9
S'\x95\xf3\x1f\xd4jh\xc3?'
p769
tp770
Rp771
aa(lp772
Vscreening
p773
ag5
(g9
S'\xab\x15n<\x92a\xd1?'
p774
tp775
Rp776
aa(lp777
g208
ag5
(g9
S'|\xc4\xe65\xbbh\xcf?'
p778
tp779
Rp780
aa(lp781
Vclinical
p782
ag5
(g9
S'\x06\x96\xa0\xa5\xd7\xe3\xc7?'
p783
tp784
Rp785
aa(lp786
Vbreast
p787
ag5
(g9
S'G,..\x14\x12\xc4?'
p788
tp789
Rp790
aa(lp791
Vpelvic
p792
ag5
(g9
S'L\xc3cg\xcbP\xc2?'
p793
tp794
Rp795
aasS'GERIATRIC PSYCHIATRY'
p796
(lp797
(lp798
g699
ag5
(g9
S'Yp\xd2\xb6\x89G\xd3?'
p799
tp800
Rp801
aa(lp802
g480
ag5
(g9
S'\xa1\xb8\x80\x8e*\xd8\xcc?'
p803
tp804
Rp805
aa(lp806
g485
ag5
(g9
S'\xa1\xb8\x80\x8e*\xd8\xcc?'
p807
tp808
Rp809
aa(lp810
Vpsychotherapy
p811
ag5
(g9
S'\xfd\t\xf8\xeb?v\xc8?'
p812
tp813
Rp814
aa(lp815
Vfamily
p816
ag5
(g9
S'\xfd\t\xf8\xeb?v\xc8?'
p817
tp818
Rp819
aa(lp820
Vhome
p821
ag5
(g9
S'\xec7\x8e\xc4\xb2\xca\xbc?'
p822
tp823
Rp824
aa(lp825
Vandor
p826
ag5
(g9
S'\x11\xf7\x86\xa7l\x05\xbc?'
p827
tp828
Rp829
aa(lp830
g490
ag5
(g9
S'\xe7\x8b\xdf\x12B)\xbb?'
p831
tp832
Rp833
aa(lp834
g41
ag5
(g9
S'$\xff\xc2\x9b\xd4\x93\xd1?'
p835
tp836
Rp837
aa(lp838
g46
ag5
(g9
S'~\x99\x91\x02\x89\x17\xc7?'
p839
tp840
Rp841
aa(lp842
g51
ag5
(g9
S"'z\x85\x167\xdb\xc6?"
p843
tp844
Rp845
aa(lp846
Vmember
p847
ag5
(g9
S'V4D\xc3\xfd\x06\xc6?'
p848
tp849
Rp850
aa(lp851
Vservice
p852
ag5
(g9
S'V\xceQ\xa5\xe3X\xc2?'
p853
tp854
Rp855
aa(lp856
Vevaluation
p857
ag5
(g9
S'#kp\x07^\xfd\xc0?'
p858
tp859
Rp860
aa(lp861
Vperformed
p862
ag5
(g9
S'C\x93\xb7u\x80\x16\xbd?'
p863
tp864
Rp865
aa(lp866
Vmanagement
p867
ag5
(g9
S'\x92\xdbw*)(\xbc?'
p868
tp869
Rp870
aa(lp871
Vtypically
p872
ag5
(g9
S'\xe4\x16w\x98\x19\x80\xdb?'
p873
tp874
Rp875
aa(lp876
Vday
p877
ag5
(g9
S'\x1d\xeb(k\xe4(\xd7?'
p878
tp879
Rp880
aa(lp881
Vsubsequent
p882
ag5
(g9
S'\x9cOd\xff\xf6\xbe\xcb?'
p883
tp884
Rp885
aa(lp886
Vpsychiatric
p887
ag5
(g9
S'\xbb:p\x93\xce\x9b\xc5?'
p888
tp889
Rp890
aa(lp891
Vestablished
p892
ag5
(g9
S'\x18+G\x92\xf9j\xc4?'
p893
tp894
Rp895
aa(lp896
V15
p897
ag5
(g9
S'|\xeb\xd3\xea\xd6\x87\xbf?'
p898
tp899
Rp900
aa(lp901
Vshock
p902
ag5
(g9
S'\xf3\xbbn\xb2S\xed\xb8?'
p903
tp904
Rp905
aa(lp906
Vdiagnostic
p907
ag5
(g9
S'\xbc0o\xe5\xa6q\xb8?'
p908
tp909
Rp910
aa(lp911
g213
ag5
(g9
S'\xbf\x04s-\xbe\x0c\xde?'
p912
tp913
Rp914
aa(lp915
Vhospital
p916
ag5
(g9
S'\xfbn\x98\xf9\xc2 \xd0?'
p917
tp918
Rp919
aa(lp920
Vcare
p921
ag5
(g9
S'P\xcf:m=b\xc9?'
p922
tp923
Rp924
aa(lp925
Vinpatient
p926
ag5
(g9
S'V>\x8ed\xdfs\xc8?'
p927
tp928
Rp929
aa(lp930
Vinitial
p931
ag5
(g9
S':\xd4^\x98?M\xc0?'
p932
tp933
Rp934
aasS'CHIROPRACTIC'
p935
(lp936
(lp937
Vregions
p938
ag5
(g9
S'\x04\xdb\x93\x85\xde\xda\xd7?'
p939
tp940
Rp941
aa(lp942
Vspinal
p943
ag5
(g9
S'\xaa\x13)\x00i\xe8\xd3?'
p944
tp945
Rp946
aa(lp947
Vtreatment
p948
ag5
(g9
S'\x16\x82?6\xc5\x18\xd0?'
p949
tp950
Rp951
aa(lp952
g225
ag5
(g9
S'*\xa4l/U 6?'
p953
tp954
Rp955
aa(lp956
V4
p957
ag5
(g9
S'\\\xcf\x05`\xe3\xf23?'
p958
tp959
Rp960
aa(lp961
g699
ag5
(g9
S'\xaf\xad\x83\xbb\xd6\xd33?'
p962
tp963
Rp964
aa(lp965
g704
ag5
(g9
S'\xaf\xad\x83\xbb\xd6\xd33?'
p966
tp967
Rp968
aa(lp969
g709
ag5
(g9
S'\xd2bi\xc3O\x9f3?'
p970
tp971
Rp972
aa(lp973
g441
ag5
(g9
S'\\)(\xde283?'
p974
tp975
Rp976
aa(lp977
g718
ag5
(g9
S'9uT\xdaR\x851?'
p978
tp979
Rp980
aa(lp981
Vvaccine
p982
ag5
(g9
S'~&\x8f\x83\xf3\x01-?'
p983
tp984
Rp985
aa(lp986
Vinfluenza
p987
ag5
(g9
S'~&\x8f\x83\xf3\x01-?'
p988
tp989
Rp990
aa(lp991
Vnew
p992
ag5
(g9
S'\xa3\xb7\x9e\x00\xeb>$?'
p993
tp994
Rp995
aa(lp996
g723
ag5
(g9
S'\xaf\xad\x83\xbb\xd6\xd3#?'
p997
tp998
Rp999
aa(lp1000
Vtechniques
p1001
ag5
(g9
S'\x9e\x7f\x0c\xbbW\xfa"?'
p1002
tp1003
Rp1004
aa(lp1005
Vsugar
p1006
ag5
(g9
S'\xa7\xe8\x116\xe2R ?'
p1007
tp1008
Rp1009
aa(lp1010
Vphysical
p1011
ag5
(g9
S'1N\xfe\xe0\xec\xb17?'
p1012
tp1013
Rp1014
aa(lp1015
Vtherapy
p1016
ag5
(g9
S'\x85F\xdb\xd2\xc8/6?'
p1017
tp1018
Rp1019
aa(lp1020
V3
p1021
ag5
(g9
S'\x98^\x84\x8cNt3?'
p1022
tp1023
Rp1024
aa(lp1025
Vareas
p1026
ag5
(g9
S'-\x88\x1f\x8a\x82\x030?'
p1027
tp1028
Rp1029
aa(lp1030
Vtherapeutic
p1031
ag5
(g9
S'\xa2{\x91\xde\xad\xcd+?'
p1032
tp1033
Rp1034
aa(lp1035
Vreevaluation
p1036
ag5
(g9
S'\xcf\x19A\xd5\xf7\x14(?'
p1037
tp1038
Rp1039
aa(lp1040
Vcare
p1041
ag5
(g9
S'R)\xb0,\x9a\x93#?'
p1042
tp1043
Rp1044
aa(lp1045
Vindications
p1046
ag5
(g9
S'\x00\x8f\x89\x92\xb69#?'
p1047
tp1048
Rp1049
aa(lp1050
Vreeducate
p1051
ag5
(g9
S'\x82Q$)\xef\xe6"?'
p1052
tp1053
Rp1054
aa(lp1055
Vbraintonervetomuscle
p1056
ag5
(g9
S'\x82Q$)\xef\xe6"?'
p1057
tp1058
Rp1059
aa(lp1060
Vunattended
p1061
ag5
(g9
S'W\t%\xbd\xf7\xb9!?'
p1062
tp1063
Rp1064
aa(lp1065
Vrange
p1066
ag5
(g9
S'W\t%\xbd\xf7\xb9!?'
p1067
tp1068
Rp1069
aa(lp1070
Vchiropractic
p1071
ag5
(g9
S':\xf0(\t\xba&\xe6?'
p1072
tp1073
Rp1074
aa(lp1075
Vmanipulative
p1076
ag5
(g9
S'\xa4\xa3\xf9\x80\xe94\xe0?'
p1077
tp1078
Rp1079
aasS'PHYSICAL THERAPY'
p1080
(lp1081
(lp1082
Vphysical
p1083
ag5
(g9
S'\xb7\xa0\xebG\x97\r\xd8?'
p1084
tp1085
Rp1086
aa(lp1087
g225
ag5
(g9
S'A/H\xbe\xde\xe2\xd5?'
p1088
tp1089
Rp1090
aa(lp1091
Vexercise
p1092
ag5
(g9
S'\xc4\xef\x9d[\x07\x19\xc4?'
p1093
tp1094
Rp1095
aa(lp1096
g123
ag5
(g9
S"T\x1a\xa1\x93'\xc4\xbe?"
p1097
tp1098
Rp1099
aa(lp1100
Vindications
p1101
ag5
(g9
S't\xcb\xe4\x96bA\xbd?'
p1102
tp1103
Rp1104
aa(lp1105
Vstimulation
p1106
ag5
(g9
S'f\x93\xe2\x91\xe6M\xbc?'
p1107
tp1108
Rp1109
aa(lp1110
g1016
ag5
(g9
S'G<\xd1C\xb9\x01\xd5?'
p1111
tp1112
Rp1113
aa(lp1114
Vareas
p1115
ag5
(g9
S'U\xbe\x01a\xd6\x1f\xd0?'
p1116
tp1117
Rp1118
aa(lp1119
Vtechniques
p1120
ag5
(g9
S'\xe6\xc1\xdczu\xb7\xc7?'
p1121
tp1122
Rp1123
aa(lp1124
Vregions
p1125
ag5
(g9
S'\xd7\x0fY\xd2\x9c2\xc6?'
p1126
tp1127
Rp1128
aa(lp1129
Vmanual
p1130
ag5
(g9
S'L9\xdb\xe1\x93\x98\xc0?'
p1131
tp1132
Rp1133
aa(lp1134
g395
ag5
(g9
S'$s\xc8\xe2\x90~\xbe?'
p1135
tp1136
Rp1137
aa(lp1138
Vreeducate
p1139
ag5
(g9
S'\xff\xb8\xb4\xdb\xbaG\xbe?'
p1140
tp1141
Rp1142
aa(lp1143
Vbraintonervetomuscle
p1144
ag5
(g9
S'\xff\xb8\xb4\xdb\xbaG\xbe?'
p1145
tp1146
Rp1147
aa(lp1148
Vtherapeutic
p1149
ag5
(g9
S'{jL\xff\xb2\xdf\xd4?'
p1150
tp1151
Rp1152
aa(lp1153
Vrange
p1154
ag5
(g9
S'Z\x0e\xc3?\xce\xa8\xc9?'
p1155
tp1156
Rp1157
aa(lp1158
Vflexibility
p1159
ag5
(g9
S'Q\xc6;qL\x85\xc9?'
p1160
tp1161
Rp1162
aa(lp1163
Vdevelop
p1164
ag5
(g9
S'Q\xc6;qL\x85\xc9?'
p1165
tp1166
Rp1167
aa(lp1168
Vstrength
p1169
ag5
(g9
S'\x9eU\xce\x15\xdd\x1a\xc9?'
p1170
tp1171
Rp1172
aa(lp1173
Vendurance
p1174
ag5
(g9
S'\x9eU\xce\x15\xdd\x1a\xc9?'
p1175
tp1176
Rp1177
aa(lp1178
Vmotion
p1179
ag5
(g9
S'\xd3m7q\x10\xb6\xc7?'
p1180
tp1181
Rp1182
aa(lp1183
Vfunction
p1184
ag5
(g9
S'\x1eP\x1e\tY/\xbc?'
p1185
tp1186
Rp1187
aasS'COLORECTAL SURGERY (FORMERLY PROCTOLOGY)'
p1188
(lp1189
(lp1190
Vendoscope
p1191
ag5
(g9
S'\x99\xa0d\x9b\x9c[\xd2?'
p1192
tp1193
Rp1194
aa(lp1195
Vlarge
p1196
ag5
(g9
S'\xef\xb2\xdamx@\xcf?'
p1197
tp1198
Rp1199
aa(lp1200
g346
ag5
(g9
S'R~C\x1052\xc9?'
p1201
tp1202
Rp1203
aa(lp1204
Vrisk
p1205
ag5
(g9
S'"\x04\x07\xc7\xc6\xb9\xbf?'
p1206
tp1207
Rp1208
aa(lp1209
Vcolonoscopy
p1210
ag5
(g9
S'"\x04\x07\xc7\xc6\xb9\xbf?'
p1211
tp1212
Rp1213
aa(lp1214
g46
ag5
(g9
S'\xf6p%@\x93f\xd2?'
p1215
tp1216
Rp1217
aa(lp1218
g31
ag5
(g9
S'$d\x05p\x826\xd2?'
p1219
tp1220
Rp1221
aa(lp1222
g51
ag5
(g9
S'$d\x05p\x826\xd2?'
p1223
tp1224
Rp1225
aa(lp1226
g41
ag5
(g9
S'\t\x90\x1d\xf8\xebV\xd0?'
p1227
tp1228
Rp1229
aa(lp1230
g56
ag5
(g9
S'\x04q\xa6P2\xa4\xc3?'
p1231
tp1232
Rp1233
aa(lp1234
g66
ag5
(g9
S'\x17\xdb@\x8bpO\xc1?'
p1235
tp1236
Rp1237
aa(lp1238
Vanus
p1239
ag5
(g9
S':\xca\xd7[\xd4/\xc0?'
p1240
tp1241
Rp1242
aa(lp1243
Vdiagnostic
p1244
ag5
(g9
S'!\xc5~|R5\xbf?'
p1245
tp1246
Rp1247
aa(lp1248
Vremoval
p1249
ag5
(g9
S'\x19\x98<h\xfdk\xbc?'
p1250
tp1251
Rp1252
aa(lp1253
Vhemorrhoid
p1254
ag5
(g9
S'k\xd9\xe5\xacW\xf8\xb7?'
p1255
tp1256
Rp1257
aa(lp1258
Vbowel
p1259
ag5
(g9
S'\xd5`\xae,]=\xd3?'
p1260
tp1261
Rp1262
aa(lp1263
Vpolyps
p1264
ag5
(g9
S'\x04UP\\\xcc\x15\xc0?'
p1265
tp1266
Rp1267
aa(lp1268
Vindividual
p1269
ag5
(g9
S'\xb8\xb3y\xb1\x1f\x98\xba?'
p1270
tp1271
Rp1272
aa(lp1273
g208
ag5
(g9
S"\xea\x9a\xb8<'\x14\xd9?"
p1274
tp1275
Rp1276
aa(lp1277
g213
ag5
(g9
S'\xf8"\x1cw\xfa\x98\xd6?'
p1278
tp1279
Rp1280
aa(lp1281
Vday
p1282
ag5
(g9
S'\x99\x0c\xd3%Ta\xc0?'
p1283
tp1284
Rp1285
aa(lp1286
g916
ag5
(g9
S'\x8e\\\xb2\xba\xa04\xc0?'
p1287
tp1288
Rp1289
aa(lp1290
Vexamination
p1291
ag5
(g9
S'\xf8\xe8\x89\xfb\xbf,\xc0?'
p1292
tp1293
Rp1294
aa(lp1295
g926
ag5
(g9
S'\xac\x06\xb2Zv\xa1\xbf?'
p1296
tp1297
Rp1298
aa(lp1299
g921
ag5
(g9
S'?\x9e\xdb\xcb3O\xbe?'
p1300
tp1301
Rp1302
aasS'PREVENTIVE MEDICINE'
p1303
(lp1304
(lp1305
g699
ag5
(g9
S'\xa8.6\x81\xdb\xa0\xdb?'
p1306
tp1307
Rp1308
aa(lp1309
g982
ag5
(g9
S'\xab\xfc~\x9f\x8dS\xbb?'
p1310
tp1311
Rp1312
aa(lp1313
Vvirus
p1314
ag5
(g9
S"\xf3\xbc\x89'\x97\x0c\xb9?"
p1315
tp1316
Rp1317
aa(lp1318
g987
ag5
(g9
S':}\x94\xaf\xa0\xc5\xb6?'
p1319
tp1320
Rp1321
aa(lp1322
Vskin
p1323
ag5
(g9
S'\xc0j\x0f\xf7z\x8a\xae?'
p1324
tp1325
Rp1326
aa(lp1327
Vadministration
p1328
ag5
(g9
S'\xfa\xf6q\xa1\xcf\xf5\xab?'
p1329
tp1330
Rp1331
aa(lp1332
g26
ag5
(g9
S'\xd3\xfe \xbe\xfe\xf3\xdc?'
p1333
tp1334
Rp1335
aa(lp1336
g36
ag5
(g9
S'\x7f\x893sK\xe7\xd9?'
p1337
tp1338
Rp1339
aa(lp1340
g46
ag5
(g9
S'\xd4g\xb5\x7f\xca\xaf\xd4?'
p1341
tp1342
Rp1343
aa(lp1344
g51
ag5
(g9
S'`\xf0\x02\x01\xc1y\xd4?'
p1345
tp1346
Rp1347
aa(lp1348
g56
ag5
(g9
S'\xf6{\x96J8@\xcd?'
p1349
tp1350
Rp1351
aa(lp1352
Vday
p1353
ag5
(g9
S'%\xcc$\xef\x06m\xc0?'
p1354
tp1355
Rp1356
aa(lp1357
Vfacility
p1358
ag5
(g9
S'"\xd3bbqx\xbd?'
p1359
tp1360
Rp1361
aa(lp1362
Vnursing
p1363
ag5
(g9
S'\xf6\x1c\x13\nb\x19\xbd?'
p1364
tp1365
Rp1366
aa(lp1367
Vsubsequent
p1368
ag5
(g9
S'\xc7\xf2\x18\xa9\x08\xde\xbb?'
p1369
tp1370
Rp1371
aa(lp1372
g269
ag5
(g9
S'\x1d\x1a\xcf\xe5A"\xb8?'
p1373
tp1374
Rp1375
aa(lp1376
g274
ag5
(g9
S'\t\x94A\x82Ug\xb4?'
p1377
tp1378
Rp1379
aa(lp1380
Vwounds
p1381
ag5
(g9
S'n^\x1a2{\xa1\xad?'
p1382
tp1383
Rp1384
aa(lp1385
g1249
ag5
(g9
S'\xe8wU\xdb[c\xab?'
p1386
tp1387
Rp1388
aa(lp1389
Vtissue
p1390
ag5
(g9
S'\xc00]u2\x18\xab?'
p1391
tp1392
Rp1393
aa(lp1394
g279
ag5
(g9
S'\x0b\xe5\x07\xc4\xf7\xf6\xd1?'
p1395
tp1396
Rp1397
aa(lp1398
Vguidance
p1399
ag5
(g9
S'\x9e\x12\xb2&@\xf1\xcb?'
p1400
tp1401
Rp1402
aa(lp1403
Vfacet
p1404
ag5
(g9
S'\xb6\\\xd9+\xcb\xca\xcb?'
p1405
tp1406
Rp1407
aa(lp1408
Vimaging
p1409
ag5
(g9
S'\xaaL\x132F\xc8\xc9?'
p1410
tp1411
Rp1412
aa(lp1413
g607
ag5
(g9
S'\xf1\xc0\xda\xaaL\x1b\xc9?'
p1414
tp1415
Rp1416
aa(lp1417
Vspine
p1418
ag5
(g9
S'4(\x8f2\xb1\xec\xc7?'
p1419
tp1420
Rp1421
aa(lp1422
Vhome
p1423
ag5
(g9
S'\xccZD\xa1\x82\x1e\xc3?'
p1424
tp1425
Rp1426
aa(lp1427
Vusing
p1428
ag5
(g9
S'\xe8\xc9Xa\xc0h\xc1?'
p1429
tp1430
Rp1431
aa(lp1432
Vlower
p1433
ag5
(g9
S'\x06\xf5I\x85O\xcc\xc0?'
p1434
tp1435
Rp1436
aa(lp1437
Vhealth
p1438
ag5
(g9
S'\xcc\x08\x7f\xc5\xcd,\xc0?'
p1439
tp1440
Rp1441
aa(lp1442
Vplan
p1443
ag5
(g9
S'\x89\xef\xeeGw2\xb9?'
p1444
tp1445
Rp1446
aa(lp1447
Vwellness
p1448
ag5
(g9
S'\xcc\x94\xb0\xc4\x13\xfc\xb6?'
p1449
tp1450
Rp1451
aa(lp1452
Vpps
p1453
ag5
(g9
S'\xcc\x94\xb0\xc4\x13\xfc\xb6?'
p1454
tp1455
Rp1456
aa(lp1457
Vpatient
p1458
ag5
(g9
S'\x7f\xd2\x94\xfe\xe3\xd6\xd4?'
p1459
tp1460
Rp1461
aa(lp1462
g921
ag5
(g9
S'w%\x11_\x05\xba\xc1?'
p1463
tp1464
Rp1465
aa(lp1466
g926
ag5
(g9
S'\x18\xb0\xf3I\x17\xd5\xbe?'
p1467
tp1468
Rp1469
aa(lp1470
g916
ag5
(g9
S'%\xfb\xc2_\xf3\x80\xbe?'
p1471
tp1472
Rp1473
aa(lp1474
g319
ag5
(g9
S'\xc6\x93\x1cI^\x8b\xbd?'
p1475
tp1476
Rp1477
aa(lp1478
g931
ag5
(g9
S'\xa9a\xf7\xe6)\x95\xb5?'
p1479
tp1480
Rp1481
aa(lp1482
g304
ag5
(g9
S'\x10#?\x90x\xdf\xb4?'
p1483
tp1484
Rp1485
aa(lp1486
g314
ag5
(g9
S'\xd8n\xfa!\x14\xc6\xb3?'
p1487
tp1488
Rp1489
aa(lp1490
Vtest
p1491
ag5
(g9
S'k+\xbc\xbd)Q\xb3?'
p1492
tp1493
Rp1494
aasS'GERIATRIC MEDICINE'
p1495
(lp1496
(lp1497
g225
ag5
(g9
S'\xa9\xd43\xdf\xfdZ\xdb?'
p1498
tp1499
Rp1500
aa(lp1501
g441
ag5
(g9
S'\x8e\xd4\x98\x10\x86G\xdb?'
p1502
tp1503
Rp1504
aa(lp1505
g704
ag5
(g9
S'\xfaK\x95\xf9\x930\xc4?'
p1506
tp1507
Rp1508
aa(lp1509
g709
ag5
(g9
S'\x0f\x12\xeaQ\x17\xfb\xc3?'
p1510
tp1511
Rp1512
aa(lp1513
g723
ag5
(g9
S'\xc9\xff\x9f\xb9%i\xc3?'
p1514
tp1515
Rp1516
aa(lp1517
g1353
ag5
(g9
S'(O8x\xee\xe9\xd2?'
p1518
tp1519
Rp1520
aa(lp1521
g1358
ag5
(g9
S'\xc3rZH\x8b\xe8\xd1?'
p1522
tp1523
Rp1524
aa(lp1525
g1363
ag5
(g9
S'\xf4\xf9%b\xc7\xae\xd1?'
p1526
tp1527
Rp1528
aa(lp1529
g1368
ag5
(g9
S'\xf1\x99(\x10f{\xc6?'
p1530
tp1531
Rp1532
aa(lp1533
Vinitial
p1534
ag5
(g9
S'\x8c\x17=\xd7\xa3\xe8\xc1?'
p1535
tp1536
Rp1537
aa(lp1538
Vinpatient
p1539
ag5
(g9
S'\x0eS\xd3\xa8\xf4\xaf\xbb?'
p1540
tp1541
Rp1542
aa(lp1543
Vvirus
p1544
ag5
(g9
S'\x0c\xa4+\xc9\x90\x8d\xae?'
p1545
tp1546
Rp1547
aa(lp1548
g390
ag5
(g9
S'gb\x8d\xe0\x05,\xcf?'
p1549
tp1550
Rp1551
aa(lp1552
g1423
ag5
(g9
S'\xd0\xd2\x96k<\xdc\xc3?'
p1553
tp1554
Rp1555
aa(lp1556
g395
ag5
(g9
S'\x12G\xb8\xfc\x0f\x90\xc3?'
p1557
tp1558
Rp1559
aa(lp1560
g1438
ag5
(g9
S'pD\xd9\xb8\xeeW\xc3?'
p1561
tp1562
Rp1563
aa(lp1564
g400
ag5
(g9
S'O\xcf\x82\x01\xbb\x1c\xc2?'
p1565
tp1566
Rp1567
aa(lp1568
g592
ag5
(g9
S'\xb4\xf0\xa8\x9d\xe9\xde\xb2?'
p1569
tp1570
Rp1571
aa(lp1572
Vdischarge
p1573
ag5
(g9
S'K!\x01B\xd5{\xb1?'
p1574
tp1575
Rp1576
aa(lp1577
Vvisit
p1578
ag5
(g9
S'\x145D\xd6\xa5M\xd7?'
p1579
tp1580
Rp1581
aa(lp1582
Vliving
p1583
ag5
(g9
S'\t\xbau\xbb\xea\xa3\xb5?'
p1584
tp1585
Rp1586
aa(lp1587
Vassisted
p1588
ag5
(g9
S'\t\xbau\xbb\xea\xa3\xb5?'
p1589
tp1590
Rp1591
aa(lp1592
Vplan
p1593
ag5
(g9
S'\xbc\x9c\xb3;59\xaf?'
p1594
tp1595
Rp1596
aasS'SURGICAL ONCOLOGY'
p1597
(lp1598
(lp1599
g723
ag5
(g9
S'\xb3\x04\xf3\x92\xaf\x85\xcb?'
p1600
tp1601
Rp1602
aa(lp1603
Vbreast
p1604
ag5
(g9
S'\x99)\xfa\x11\x98\x06\xc9?'
p1605
tp1606
Rp1607
aa(lp1608
Vlymph
p1609
ag5
(g9
S'\x1e\xef\xc9M\xc5$\xc8?'
p1610
tp1611
Rp1612
aa(lp1613
Vremoval
p1614
ag5
(g9
S'\x99\xa9\x8d?f\xf8\xc2?'
p1615
tp1616
Rp1617
aa(lp1618
Vnode
p1619
ag5
(g9
S'\x19g\xf38\x17\xe6\xbe?'
p1620
tp1621
Rp1622
aa(lp1623
Vbiopsy
p1624
ag5
(g9
S'jW\xe7\xc8\xf6!\xbc?'
p1625
tp1626
Rp1627
aa(lp1628
Vnodes
p1629
ag5
(g9
S'\x18\xfb\x11\x0b$Z\xbb?'
p1630
tp1631
Rp1632
aa(lp1633
Vimaging
p1634
ag5
(g9
S'\xcd9\x89\xcb\xedo\xb6?'
p1635
tp1636
Rp1637
aa(lp1638
Vpartial
p1639
ag5
(g9
S'?kCb\xc0 \xb3?'
p1640
tp1641
Rp1642
aa(lp1643
Vguidance
p1644
ag5
(g9
S'\x9f\x13\xa6\x84\x8f\xf0\xb2?'
p1645
tp1646
Rp1647
aa(lp1648
Vinsertion
p1649
ag5
(g9
S'u\xd9B\xc4E;\xb0?'
p1650
tp1651
Rp1652
aa(lp1653
g26
ag5
(g9
S'\xf01\x88s\x8aa\xdb?'
p1654
tp1655
Rp1656
aa(lp1657
g36
ag5
(g9
S'\xae\x8cNx\x9b\x9b\xd8?'
p1658
tp1659
Rp1660
aa(lp1661
Vhospital
p1662
ag5
(g9
S'p9$\xd1H\x8f\xb4?'
p1663
tp1664
Rp1665
aa(lp1666
g1353
ag5
(g9
S'p9$\xd1H\x8f\xb4?'
p1667
tp1668
Rp1669
aa(lp1670
g1539
ag5
(g9
S'2\xe9\xfb\x13T\x08\xb4?'
p1671
tp1672
Rp1673
aa(lp1674
g1041
ag5
(g9
S'\x98f>\x03\x9f\x06\xb3?'
p1675
tp1676
Rp1677
aa(lp1678
Voffice
p1679
ag5
(g9
S'\xe1\x7f\xd2\xf7\x1b\xb8\xd7?'
p1680
tp1681
Rp1682
aa(lp1683
Vvisit
p1684
ag5
(g9
S'\xa8\xfbv\xc4w;\xd7?'
p1685
tp1686
Rp1687
aa(lp1688
Voutpatient
p1689
ag5
(g9
S'\xa8\xfbv\xc4w;\xd7?'
p1690
tp1691
Rp1692
aa(lp1693
g390
ag5
(g9
S'F l\xa5\x07\xe1\xd5?'
p1694
tp1695
Rp1696
aa(lp1697
Vnew
p1698
ag5
(g9
S"\xcaX\xd6@'v\xc7?"
p1699
tp1700
Rp1701
aa(lp1702
Vcentimeters
p1703
ag5
(g9
S'\x87P\x9b\x98\xdbb\xbc?'
p1704
tp1705
Rp1706
aa(lp1707
Vneck
p1708
ag5
(g9
S'\x96\xc0\x07\xe0\x94\xb5\xae?'
p1709
tp1710
Rp1711
aasS'PAIN MANAGEMENT'
p1712
(lp1713
(lp1714
Vspine
p1715
ag5
(g9
S'\xd7\x034\xec\x9e\xab\xd4?'
p1716
tp1717
Rp1718
aa(lp1719
Vfacet
p1720
ag5
(g9
S'A\x9a0Q\x89\xc9\xd2?'
p1721
tp1722
Rp1723
aa(lp1724
Vlower
p1725
ag5
(g9
S'\x18\xc5\xe3\xfb&\xe7\xcc?'
p1726
tp1727
Rp1728
aa(lp1729
g346
ag5
(g9
S'\xe5r:+\xd0\xf5\xc8?'
p1730
tp1731
Rp1732
aa(lp1733
Vnerve
p1734
ag5
(g9
S'\x12\n\x98g\xfe;\xc2?'
p1735
tp1736
Rp1737
aa(lp1738
Vsacral
p1739
ag5
(g9
S'\x128\x88\x14V\xe5\xc0?'
p1740
tp1741
Rp1742
aa(lp1743
Vmiddle
p1744
ag5
(g9
S'\xb0\xf8+\xefB\x06\xc0?'
p1745
tp1746
Rp1747
aa(lp1748
Vroot
p1749
ag5
(g9
S'\xdfq\x01\x7f\x91\x94\xbe?'
p1750
tp1751
Rp1752
aa(lp1753
Vupper
p1754
ag5
(g9
S'\\\xa3(~S|\xba?'
p1755
tp1756
Rp1757
aa(lp1758
g36
ag5
(g9
S'N\xdb\xa1\x01\xa9\x84\xc9?'
p1759
tp1760
Rp1761
aa(lp1762
g26
ag5
(g9
S'fW\x0f\xda\x9fQ\xc9?'
p1763
tp1764
Rp1765
aa(lp1766
g41
ag5
(g9
S'\xfd\x8e\x84\xa8\xa1h\xc8?'
p1767
tp1768
Rp1769
aa(lp1770
g31
ag5
(g9
S'\xc7\x96d\x03\xe8\xa7\xc6?'
p1771
tp1772
Rp1773
aa(lp1774
g46
ag5
(g9
S'\x87\xe9\xdf\x0e\xb0\x92\xc6?'
p1775
tp1776
Rp1777
aa(lp1778
g51
ag5
(g9
S"\xd5\xdd\xea'\xb9W\xc6?"
p1779
tp1780
Rp1781
aa(lp1782
Vdrug
p1783
ag5
(g9
S'\x1c;\xcdf5\xcb\xbb?'
p1784
tp1785
Rp1786
aa(lp1787
g56
ag5
(g9
S'\xf0F5M2%\xbb?'
p1788
tp1789
Rp1790
aa(lp1791
g1399
ag5
(g9
S'u\x80\x82\xf7\xef\x89\xd4?'
p1792
tp1793
Rp1794
aa(lp1795
Vspinal
p1796
ag5
(g9
S'\x8c\xf3\xcf\x9bw2\xc3?'
p1797
tp1798
Rp1799
aa(lp1800
Vsubstances
p1801
ag5
(g9
S'\xa0\xf0\xa4z+\xd9\xb8?'
p1802
tp1803
Rp1804
aa(lp1805
Vinjection
p1806
ag5
(g9
S'\x15\xb6_\x9ek\xf1\xda?'
p1807
tp1808
Rp1809
aa(lp1810
g299
ag5
(g9
S'+xt\x16\x99\x7f\xd3?'
p1811
tp1812
Rp1813
aa(lp1814
Vimaging
p1815
ag5
(g9
S'\xb9\xcc|pM\x9f\xd2?'
p1816
tp1817
Rp1818
aasS'GYNECOLOGICAL ONCOLOGY'
p1819
(lp1820
(lp1821
Vcervical
p1822
ag5
(g9
S'\x1b\xbc\xfb\x94t]\xd4?'
p1823
tp1824
Rp1825
aa(lp1826
Vvaginal
p1827
ag5
(g9
S'^\xcb\x04\x08\x0bD\xd3?'
p1828
tp1829
Rp1830
aa(lp1831
Vsmear
p1832
ag5
(g9
S'^\xcb\x04\x08\x0bD\xd3?'
p1833
tp1834
Rp1835
aa(lp1836
Vscreening
p1837
ag5
(g9
S'\xc7\xa0\xc4\xd8\x8b9\xce?'
p1838
tp1839
Rp1840
aa(lp1841
Vpreparing
p1842
ag5
(g9
S'\xbc\x1e\xfe\xe4\xb4\xa0\xc6?'
p1843
tp1844
Rp1845
aa(lp1846
Vconveyance
p1847
ag5
(g9
S'\xbc\x1e\xfe\xe4\xb4\xa0\xc6?'
p1848
tp1849
Rp1850
aa(lp1851
Vpapanicolaou
p1852
ag5
(g9
S'\x88R\xe1\xee\xc1\x1e\xc6?'
p1853
tp1854
Rp1855
aa(lp1856
Vobtaining
p1857
ag5
(g9
S'\x88R\xe1\xee\xc1\x1e\xc6?'
p1858
tp1859
Rp1860
aa(lp1861
Vclinical
p1862
ag5
(g9
S'\x81i&m\xb0\xa4\xc5?'
p1863
tp1864
Rp1865
aa(lp1866
Vlaboratory
p1867
ag5
(g9
S'\xf3X\x9f\x17\x8c\x9d\xc3?'
p1868
tp1869
Rp1870
aa(lp1871
g1604
ag5
(g9
S'\x81\n\xb4\x8f.M\xc2?'
p1872
tp1873
Rp1874
aa(lp1875
Vcancer
p1876
ag5
(g9
S'\xc2L\xd2y\x071\xc0?'
p1877
tp1878
Rp1879
aa(lp1880
Vpelvic
p1881
ag5
(g9
S'\xe3/\xa9-S\xed\xbf?'
p1882
tp1883
Rp1884
aa(lp1885
g46
ag5
(g9
S'5\x98\x90\xa6\x7f\xbc\xd6?'
p1886
tp1887
Rp1888
aa(lp1889
g31
ag5
(g9
S'\xa7\x0b\x07\x88\x1b\x81\xd6?'
p1890
tp1891
Rp1892
aa(lp1893
g51
ag5
(g9
S'\xa7\x0b\x07\x88\x1b\x81\xd6?'
p1894
tp1895
Rp1896
aa(lp1897
g26
ag5
(g9
S'\xf9S\xf7\xa9vF\xd6?'
p1898
tp1899
Rp1900
aa(lp1901
g36
ag5
(g9
S'L\xee\xca \xa1\xbd\xd5?'
p1902
tp1903
Rp1904
aa(lp1905
g41
ag5
(g9
S'\xc5\xafd\xb3\xd3\xed\xd3?'
p1906
tp1907
Rp1908
aa(lp1909
g56
ag5
(g9
S'W\xe1 E\x0e\xb0\xce?'
p1910
tp1911
Rp1912
aa(lp1913
Vuterus
p1914
ag5
(g9
S'Q\x02=\xf45g\xc0?'
p1915
tp1916
Rp1917
aa(lp1918
g66
ag5
(g9
S'?\xef\x08I\t\x8a\xbd?'
p1919
tp1920
Rp1921
aa(lp1922
Vultrasound
p1923
ag5
(g9
S'\xea\x1b\x1c\x13\x8e4\xb8?'
p1924
tp1925
Rp1926
aa(lp1927
Vpelvis
p1928
ag5
(g9
S'\xd1\xdd\xe1%\x8c@\xb5?'
p1929
tp1930
Rp1931
aa(lp1932
Vvagina
p1933
ag5
(g9
S'mT\xb5\xcb#\xc2\xb2?'
p1934
tp1935
Rp1936
aa(lp1937
Vbladder
p1938
ag5
(g9
S'\x06n\xcf\xdc(]\xd9?'
p1939
tp1940
Rp1941
aa(lp1942
Velectronic
p1943
ag5
(g9
S'\x1f\x8e\x93p\x8a\x89\xd1?'
p1944
tp1945
Rp1946
aa(lp1947
Vpressure
p1948
ag5
(g9
S'\x8dC\xaf\xea\xa1-\xca?'
p1949
tp1950
Rp1951
aa(lp1952
g897
ag5
(g9
S'\xf6\x97\xb8~\t\x1f\xc9?'
p1953
tp1954
Rp1955
aa(lp1956
Vdevice
p1957
ag5
(g9
S'Z\x85\xbeY\xed\x08\xc6?'
p1958
tp1959
Rp1960
aa(lp1961
Vopenings
p1962
ag5
(g9
S'\xf0\x97\xea&\x82f\xc5?'
p1963
tp1964
Rp1965
aa(lp1966
Vnonneedle
p1967
ag5
(g9
S'\xf0\x97\xea&\x82f\xc5?'
p1968
tp1969
Rp1970
aa(lp1971
Vemptying
p1972
ag5
(g9
S'\x9d\xe9E\n\x0e\xd9\xc4?'
p1973
tp1974
Rp1975
aa(lp1976
Vvoiding
p1977
ag5
(g9
S'\xf2$\x92\xf0\x1bj\xc3?'
p1978
tp1979
Rp1980
aa(lp1981
Vmeasurement
p1982
ag5
(g9
S'\x05\x7f\xca\xb4\x8d\xa6\xc2?'
p1983
tp1984
Rp1985
aa(lp1986
Vinsertion
p1987
ag5
(g9
S'\xe2\x80\x9dt`\xdf\xc1?'
p1988
tp1989
Rp1990
aa(lp1991
g1259
ag5
(g9
S'2+\x07h\x1b\x10\xc0?'
p1992
tp1993
Rp1994
aa(lp1995
Vurine
p1996
ag5
(g9
S'\x0c\xcd\xa6\x9cRB\xbd?'
p1997
tp1998
Rp1999
aa(lp2000
Vlevel
p2001
ag5
(g9
S"Af$'\xe6\x7f\xd7?"
p2002
tp2003
Rp2004
aa(lp2005
Vblood
p2006
ag5
(g9
S'\xffz\x03\xaa\x8eq\xd3?'
p2007
tp2008
Rp2009
aa(lp2010
Vinfusion
p2011
ag5
(g9
S'\xc8\x03\x13\xd8\x0cD\xd1?'
p2012
tp2013
Rp2014
aa(lp2015
Vvein
p2016
ag5
(g9
S'\xd9jk\x1d\xe1\xd2\xc9?'
p2017
tp2018
Rp2019
aa(lp2020
g1806
ag5
(g9
S'\xd3\xd8\x1d\r\\\xdd\xc5?'
p2021
tp2022
Rp2023
aa(lp2024
g627
ag5
(g9
S"0\x93\xaeW\xdd'\xc3?"
p2025
tp2026
Rp2027
aa(lp2028
g1491
ag5
(g9
S'#L\x87\x9d\xbc\xbd\xc2?'
p2029
tp2030
Rp2031
aa(lp2032
Vhour
p2033
ag5
(g9
S'\x9aZ\xca\xb4{\xa9\xc1?'
p2034
tp2035
Rp2036
aa(lp2037
Vantigen
p2038
ag5
(g9
S'\x9d\xcb\xdea\x02\x1d\xc0?'
p2039
tp2040
Rp2041
aa(lp2042
Vprevention
p2043
ag5
(g9
S'\xa2\x14\xf8\xfd\x88S\xbe?'
p2044
tp2045
Rp2046
aa(lp2047
Vsaline
p2048
ag5
(g9
S'g\x02\xe9\x99\x89\xbb\xbd?'
p2049
tp2050
Rp2051
aa(lp2052
Vnormal
p2053
ag5
(g9
S'g\x02\xe9\x99\x89\xbb\xbd?'
p2054
tp2055
Rp2056
aa(lp2057
Vsolution
p2058
ag5
(g9
S'\xaa\xfb\xad\xeb8\x05\xbc?'
p2059
tp2060
Rp2061
aasS'PSYCHIATRY'
p2062
(lp2063
(lp2064
g225
ag5
(g9
S"\x1e'\x8fad\xae\xdd?"
p2065
tp2066
Rp2067
aa(lp2068
g709
ag5
(g9
S"\x8d\xa2/\x89'\x98\xca?"
p2069
tp2070
Rp2071
aa(lp2072
g723
ag5
(g9
S'\xe1S\xa6=|\x05\xca?'
p2073
tp2074
Rp2075
aa(lp2076
g816
ag5
(g9
S'Hl_1K\x97\xc6?'
p2077
tp2078
Rp2079
aa(lp2080
Vmember
p2081
ag5
(g9
S"m\xef'\x05\xfb1\xc6?"
p2082
tp2083
Rp2084
aa(lp2085
g123
ag5
(g9
S'U\xb6L\xf2\xc9U\xc3?'
p2086
tp2087
Rp2088
aa(lp2089
Vpsychiatric
p2090
ag5
(g9
S'W\x93|\xea\xcb;\xc3?'
p2091
tp2092
Rp2093
aa(lp2094
g826
ag5
(g9
S'\xde\x83\x1e\x11\x85\x03\xbb?'
p2095
tp2096
Rp2097
aa(lp2098
Vmanagement
p2099
ag5
(g9
S'\xc3\x94\xe3:\x1e\xeb\xba?'
p2100
tp2101
Rp2102
aa(lp2103
g31
ag5
(g9
S'\xa4\xbd!}\xc4h\xd0?'
p2104
tp2105
Rp2106
aa(lp2107
g390
ag5
(g9
S'\xdf\xd7\xa8\xebZb\xd1?'
p2108
tp2109
Rp2110
aa(lp2111
g1679
ag5
(g9
S'\xb4\xd20E\xf0\x8d\xcb?'
p2112
tp2113
Rp2114
aa(lp2115
g400
ag5
(g9
S'\x9b\x90\x7f\x9e\xc3\x8c\xcb?'
p2116
tp2117
Rp2118
aa(lp2119
g405
ag5
(g9
S'\xed\xd3\xcb|\xca\xa8\xc6?'
p2120
tp2121
Rp2122
aa(lp2123
g395
ag5
(g9
S'\xd6<\x90\x82\xdf\xd4\xc5?'
p2124
tp2125
Rp2126
aa(lp2127
Vmedical
p2128
ag5
(g9
S'w\xf2H\xb0\xe6?\xb9?'
p2129
tp2130
Rp2131
aa(lp2132
g208
ag5
(g9
S'\xaf5\x96)(\x9e\xd9?'
p2133
tp2134
Rp2135
aa(lp2136
g1282
ag5
(g9
S'L\xa7I\xf9lB\xcf?'
p2137
tp2138
Rp2139
aa(lp2140
Vpsychotherapy
p2141
ag5
(g9
S'c$\x18{\xe2\xaa\xc7?'
p2142
tp2143
Rp2144
aa(lp2145
g430
ag5
(g9
S'\x9b\xfc\xc5\x90\xd8[\xc1?'
p2146
tp2147
Rp2148
aasS'NEUROSURGERY'
p2149
(lp2150
(lp2151
g943
ag5
(g9
S'qypL\xe5\xa1\xd8?'
p2152
tp2153
Rp2154
aa(lp2155
g1715
ag5
(g9
S'J\x98.S\xceV\xd0?'
p2156
tp2157
Rp2158
aa(lp2159
Vfusion
p2160
ag5
(g9
S'\xb7\xe60|\xb5\xbf\xc6?'
p2161
tp2162
Rp2163
aa(lp2164
Vapproach
p2165
ag5
(g9
S'I\xb1\n\xd6m\xda\xc5?'
p2166
tp2167
Rp2168
aa(lp2169
Vrelease
p2170
ag5
(g9
S'\x0b\xd4\xf6^\xf8u\xc3?'
p2171
tp2172
Rp2173
aa(lp2174
Vnerves
p2175
ag5
(g9
S'\x8d\xb1\xddG\n\xf3\xc2?'
p2176
tp2177
Rp2178
aa(lp2179
Vposterior
p2180
ag5
(g9
S'{<\xd2\xf9\xbe\xe3\xc2?'
p2181
tp2182
Rp2183
aa(lp2184
Vbones
p2185
ag5
(g9
S'\xd6\xb9\x17\xb4\xe4\xd0\xc0?'
p2186
tp2187
Rp2188
aa(lp2189
g1614
ag5
(g9
S'k\xd3\xfd\x17\x1b\xa5\xc0?'
p2190
tp2191
Rp2192
aa(lp2193
Vbone
p2194
ag5
(g9
S'\x0c\x90h\x92\xf5:\xc0?'
p2195
tp2196
Rp2197
aa(lp2198
g51
ag5
(g9
S'\x98&Z\xaez\xda\xce?'
p2199
tp2200
Rp2201
aa(lp2202
Vinstrumentation
p2203
ag5
(g9
S'\x02jf\x82:\x10\xc4?'
p2204
tp2205
Rp2206
aa(lp2207
Vpartial
p2208
ag5
(g9
S'\xfc\xa8\xa7\xc3\xad\xb3\xc0?'
p2209
tp2210
Rp2211
aa(lp2212
Vstabilization
p2213
ag5
(g9
S'\x89~%{\xf83\xc3?'
p2214
tp2215
Rp2216
aa(lp2217
Vcord
p2218
ag5
(g9
S'(\x8f\xb5H$\x94\xc2?'
p2219
tp2220
Rp2221
aa(lp2222
g208
ag5
(g9
S'\xad7\x82\xff\xe7*\xd6?'
p2223
tp2224
Rp2225
aa(lp2226
g213
ag5
(g9
S'\xec\xf8\xbc~\xebN\xd4?'
p2227
tp2228
Rp2229
aa(lp2230
g1578
ag5
(g9
S'#}R\x8ee\xa3\xcf?'
p2231
tp2232
Rp2233
aa(lp2234
Voffice
p2235
ag5
(g9
S'\x9eH1\xd0#N\xcf?'
p2236
tp2237
Rp2238
aa(lp2239
g1458
ag5
(g9
S'D\xe3q\x94l\xbc\xcc?'
p2240
tp2241
Rp2242
aa(lp2243
Vestablished
p2244
ag5
(g9
S']\xed<\xe35\xf1\xc1?'
p2245
tp2246
Rp2247
aa(lp2248
g921
ag5
(g9
S'\xe7\xd4\xf8\xec\x9c\xeb\xbc?'
p2249
tp2250
Rp2251
aasS'CERTIFIED REGISTERED NURSE ANESTHETIST'
p2252
(lp2253
(lp2254
Vincluding
p2255
ag5
(g9
S"ml'\r\x87\x90\xb4?"
p2256
tp2257
Rp2258
aa(lp2259
Vuse
p2260
ag5
(g9
S'\xf5\xf7\x0c\x16\xdc\x99\xb3?'
p2261
tp2262
Rp2263
aa(lp2264
Vjoint
p2265
ag5
(g9
S'L\xbc`\xb5\x87G\xaa?'
p2266
tp2267
Rp2268
aa(lp2269
Vreplacement
p2270
ag5
(g9
S'\x8f\x81wAq\xfd\xa9?'
p2271
tp2272
Rp2273
aa(lp2274
Vknee
p2275
ag5
(g9
S'\xf2\xa5\r\xff(\xcb\xa7?'
p2276
tp2277
Rp2278
aa(lp2279
Vurinary
p2280
ag5
(g9
S'\x1c\xa5\x8b\xab\xde\xa7\xa5?'
p2281
tp2282
Rp2283
aa(lp2284
Vtotal
p2285
ag5
(g9
S'm(\x00\xb6\x0c\x87\xa5?'
p2286
tp2287
Rp2288
aa(lp2289
Vendoscope
p2290
ag5
(g9
S'#hW5#\x8b\xd3?'
p2291
tp2292
Rp2293
aa(lp2294
Vintestine
p2295
ag5
(g9
S'\xab\x15\xed\x0bnZ\xc6?'
p2296
tp2297
Rp2298
aa(lp2299
Vusing
p2300
ag5
(g9
S'\xab!\xe8S\xba.\xc3?'
p2301
tp2302
Rp2303
aa(lp2304
Vlower
p2305
ag5
(g9
S'\x8c\xa6\xc7h\x9c0\xc0?'
p2306
tp2307
Rp2308
aa(lp2309
Vabdomen
p2310
ag5
(g9
S'>"\xce`SK\xab?'
p2311
tp2312
Rp2313
aa(lp2314
Vtrunk
p2315
ag5
(g9
S'\xc8\xec\x0eO\xc4\x12\xa5?'
p2316
tp2317
Rp2318
aa(lp2319
Varms
p2320
ag5
(g9
S'\xd1#eGY;\xa2?'
p2321
tp2322
Rp2323
aa(lp2324
Vanesthesia
p2325
ag5
(g9
S'\xba\x13\x16\xeb\xa2O\xe9?'
p2326
tp2327
Rp2328
aa(lp2329
Vprocedure
p2330
ag5
(g9
S'(+\xd4])\x83\xd7?'
p2331
tp2332
Rp2333
aa(lp2334
Vgastrointestinal
p2335
ag5
(g9
S'N\x8b`\xcd\x959\xc4?'
p2336
tp2337
Rp2338
aa(lp2339
Vtract
p2340
ag5
(g9
S'v\x7f\x83^\xe3\x1b\xc2?'
p2341
tp2342
Rp2343
aa(lp2344
Vprone
p2345
ag5
(g9
S'\xc8\x99$\xe6=}\x9e?'
p2346
tp2347
Rp2348
aa(lp2349
Vfascia
p2350
ag5
(g9
S'H\xe3\xa1\x92\x9fF\x9e?'
p2351
tp2352
Rp2353
aa(lp2354
Vblock
p2355
ag5
(g9
S'\xa6f\n\xef\xbao\x9d?'
p2356
tp2357
Rp2358
aa(lp2359
Vposition
p2360
ag5
(g9
S'\xeaJg-\xd6^\x9d?'
p2361
tp2362
Rp2363
aa(lp2364
Vlens
p2365
ag5
(g9
S'y\xff0Q|\xbe\xc1?'
p2366
tp2367
Rp2368
aa(lp2369
Vsurgery
p2370
ag5
(g9
S'\xda\x06\x95D\xde9\xb8?'
p2371
tp2372
Rp2373
aa(lp2374
Vupper
p2375
ag5
(g9
S'\xae\xa0\x8b\x82\xbd\xc1\xb0?'
p2376
tp2377
Rp2378
aa(lp2379
Vbursae
p2380
ag5
(g9
S'8\x16\xd9\xf5\xac~\xa1?'
p2381
tp2382
Rp2383
aasS'VASCULAR SURGERY'
p2384
(lp2385
(lp2386
Vblood
p2387
ag5
(g9
S'\xa4l\x86\x18\xa0l\xc2?'
p2388
tp2389
Rp2390
aa(lp2391
Vvessel
p2392
ag5
(g9
S'\x85\x8fO\xb5\x8bJ\xc2?'
p2393
tp2394
Rp2395
aa(lp2396
Varterial
p2397
ag5
(g9
S'\xb05\xb9A+\x88\xbe?'
p2398
tp2399
Rp2400
aa(lp2401
Vartery
p2402
ag5
(g9
S'\xe1\x17N\xa1z\xab\xd0?'
p2403
tp2404
Rp2405
aa(lp2406
g46
ag5
(g9
S'b$"\xd3U\x99\xc7?'
p2407
tp2408
Rp2409
aa(lp2410
g31
ag5
(g9
S'\x134=\xb2\x8cd\xc7?'
p2411
tp2412
Rp2413
aa(lp2414
g51
ag5
(g9
S'\x11a\xd8\xd7\xb0[\xc7?'
p2415
tp2416
Rp2417
aa(lp2418
Vfunctional
p2419
ag5
(g9
S'\xdcs\xcen\xd0R\xc5?'
p2420
tp2421
Rp2422
aa(lp2423
Vleg
p2424
ag5
(g9
S'\x06\x8f\x9b\xb4H\x86\xc4?'
p2425
tp2426
Rp2427
aa(lp2428
Vmaneuvers
p2429
ag5
(g9
S'\xf3\r\x0f.%=\xc4?'
p2430
tp2431
Rp2432
aa(lp2433
Vveins
p2434
ag5
(g9
S'\xf1\x07\xbfV\xddo\xc1?'
p2435
tp2436
Rp2437
aa(lp2438
Vcompression
p2439
ag5
(g9
S'k\xe8\xc0\x92\x15 \xc0?'
p2440
tp2441
Rp2442
aa(lp2443
Vultrasound
p2444
ag5
(g9
S'\x7ftYq\xb6\xfd\xd7?'
p2445
tp2446
Rp2447
aa(lp2448
g872
ag5
(g9
S'\xe5:\xb8\xbbu\t\xd0?'
p2449
tp2450
Rp2451
aa(lp2452
Vminutes
p2453
ag5
(g9
S'\xb4\xa9\x89\xfe\x01\x0e\xce?'
p2454
tp2455
Rp2456
aa(lp2457
Vlegs
p2458
ag5
(g9
S'\xe8\xc1\x8f\x8e\x1fj\xcb?'
p2459
tp2460
Rp2461
aa(lp2462
Vstudy
p2463
ag5
(g9
S'N\xcfr\n\xe3\x8c\xc9?'
p2464
tp2465
Rp2466
aa(lp2467
g390
ag5
(g9
S'\x06\xf3R\xfe?\x82\xc5?'
p2468
tp2469
Rp2470
aa(lp2471
Vlimited
p2472
ag5
(g9
S'y\tp\x1f\xc5\xaa\xbf?'
p2473
tp2474
Rp2475
aa(lp2476
Varteries
p2477
ag5
(g9
S'>\xed]u\xc4\xa8\xc6?'
p2478
tp2479
Rp2480
aa(lp2481
Vscan
p2482
ag5
(g9
S'\xc8\xee=v\x9d\xe5\xc5?'
p2483
tp2484
Rp2485
aa(lp2486
Varm
p2487
ag5
(g9
S'\x0b&FS\xd1\xd2\xc2?'
p2488
tp2489
Rp2490
aasS'HEMATOLOGY/ONCOLOGY'
p2491
(lp2492
(lp2493
g225
ag5
(g9
S'\xf7fIvM8\xd4?'
p2494
tp2495
Rp2496
aa(lp2497
g240
ag5
(g9
S'\xed\x92=\x04\x86B\xd2?'
p2498
tp2499
Rp2500
aa(lp2501
g235
ag5
(g9
S'f\xef\xfe\xe1\x99\xca\xcd?'
p2502
tp2503
Rp2504
aa(lp2505
Vprevention
p2506
ag5
(g9
S'\xf9 \x12\xd2Q\x9a\xbb?'
p2507
tp2508
Rp2509
aa(lp2510
g533
ag5
(g9
S'\xcct6)J\xe0\xcd?'
p2511
tp2512
Rp2513
aa(lp2514
g46
ag5
(g9
S'\x9a\x81\xb3_ \x03\xcb?'
p2515
tp2516
Rp2517
aa(lp2518
g51
ag5
(g9
S'\x8f/(\xe7\x90\xbc\xca?'
p2519
tp2520
Rp2521
aa(lp2522
g56
ag5
(g9
S'\xf0\x1bt3\xee\xdb\xc2?'
p2523
tp2524
Rp2525
aa(lp2526
g279
ag5
(g9
S'e\xd0\xaf\xbdW\xe2\xd4?'
p2527
tp2528
Rp2529
aa(lp2530
g289
ag5
(g9
S'{\xecN(\xa9\xb2\xc6?'
p2531
tp2532
Rp2533
aa(lp2534
Vhour
p2535
ag5
(g9
S'\xddw\x98\xe9\x87>\xc6?'
p2536
tp2537
Rp2538
aa(lp2539
Vblood
p2540
ag5
(g9
S'WCHh\xffC\xc5?'
p2541
tp2542
Rp2543
aa(lp2544
g400
ag5
(g9
S'[`\xa1\xebW\xd0\xc2?'
p2545
tp2546
Rp2547
aa(lp2548
g405
ag5
(g9
S'c+\x83\x14h\x0b\xc1?'
p2549
tp2550
Rp2551
aa(lp2552
g395
ag5
(g9
S'\x81\x1d\x9b\xe1\xb2\x80\xc0?'
p2553
tp2554
Rp2555
aa(lp2556
Vtherapy
p2557
ag5
(g9
S'mY\x1e/\x8a\xcf\xbe?'
p2558
tp2559
Rp2560
aa(lp2561
g208
ag5
(g9
S'\xc6\xe4y\xd9>\xfe\xd4?'
p2562
tp2563
Rp2564
aa(lp2565
g1578
ag5
(g9
S"'\xe3\xb0,#\xc3\xca?"
p2566
tp2567
Rp2568
aa(lp2569
g1458
ag5
(g9
S"\x04D\x1cMJ'\xc8?"
p2570
tp2571
Rp2572
aa(lp2573
g1282
ag5
(g9
S'/Su\x86\xfc\xca\xc2?'
p2574
tp2575
Rp2576
aasS'INTERNAL MEDICINE'
p2577
(lp2578
(lp2579
g699
ag5
(g9
S'\xc1\xf1n\xe9\xb1\xc6\xd1?'
p2580
tp2581
Rp2582
aa(lp2583
g982
ag5
(g9
S'\x80\x88\x99z\xd1\xfb\xc2?'
p2584
tp2585
Rp2586
aa(lp2587
g2387
ag5
(g9
S'Iu\x8d\x89M\xe4\xc1?'
p2588
tp2589
Rp2590
aa(lp2591
g1314
ag5
(g9
S'\xd6\xcf\xc66\xe45\xc0?'
p2592
tp2593
Rp2594
aa(lp2595
Vtest
p2596
ag5
(g9
S'\xd9O#\x9e\xfc\xe6\xba?'
p2597
tp2598
Rp2599
aa(lp2600
g987
ag5
(g9
S'>\xa5Y\x12\xa8\xee\xb9?'
p2601
tp2602
Rp2603
aa(lp2604
g41
ag5
(g9
S'\x04\x7f~\xcd\xdd=\xcd?'
p2605
tp2606
Rp2607
aa(lp2608
g46
ag5
(g9
S'\xb9\xb4\x95\xb1Y\xc7\xc6?'
p2609
tp2610
Rp2611
aa(lp2612
g51
ag5
(g9
S'\x91t\xa4\x99W\x92\xc6?'
p2613
tp2614
Rp2615
aa(lp2616
g56
ag5
(g9
S' \x1c\xbc\x01M\xbf\xc2?'
p2617
tp2618
Rp2619
aa(lp2620
g71
ag5
(g9
S'\xc8\xd7\t\x83\x06\xec\xb5?'
p2621
tp2622
Rp2623
aa(lp2624
g877
ag5
(g9
S':\x04\xdb\xaefz\xd1?'
p2625
tp2626
Rp2627
aa(lp2628
g400
ag5
(g9
S'u\x01\x19<T9\xd1?'
p2629
tp2630
Rp2631
aa(lp2632
g395
ag5
(g9
S'Br\xb4w\x91\xfc\xcf?'
p2633
tp2634
Rp2635
aa(lp2636
g405
ag5
(g9
S'0n \xdc\xa9\x90\xc6?'
p2637
tp2638
Rp2639
aa(lp2640
g882
ag5
(g9
S'%\x96\xc1\xa96=\xc2?'
p2641
tp2642
Rp2643
aa(lp2644
g1573
ag5
(g9
S'S@?\xf6+\x18\xba?'
p2645
tp2646
Rp2647
aa(lp2648
g213
ag5
(g9
S'XV\x9f\x1d\xfe\x98\xda?'
p2649
tp2650
Rp2651
aa(lp2652
g208
ag5
(g9
S'\xbf4\x03\xfa\x1fC\xd9?'
p2653
tp2654
Rp2655
aa(lp2656
g931
ag5
(g9
S'\x82\x1f\x00\xc5\r\x95\xbe?'
p2657
tp2658
Rp2659
aasS'NUCLEAR MEDICINE'
p2660
(lp2661
(lp2662
Vheart
p2663
ag5
(g9
S'&\xddB\x19\x9d|\xcb?'
p2664
tp2665
Rp2666
aa(lp2667
g2387
ag5
(g9
S'\x8bt\xb4v<\xb3\xc1?'
p2668
tp2669
Rp2670
aa(lp2671
g1092
ag5
(g9
S'Br\xbb\x00\xe3\x0e\xc0?'
p2672
tp2673
Rp2674
aa(lp2675
Vstress
p2676
ag5
(g9
S'&i\xa8Z\xb0Q\xb9?'
p2677
tp2678
Rp2679
aa(lp2680
Vvessels
p2681
ag5
(g9
S'+!\x18j\xc1P\xb9?'
p2682
tp2683
Rp2684
aa(lp2685
Vtechnetium
p2686
ag5
(g9
S'\xaeE\xc0H\xc9\x16\xb7?'
p2687
tp2688
Rp2689
aa(lp2690
Vtcm
p2691
ag5
(g9
S'\xaeE\xc0H\xc9\x16\xb7?'
p2692
tp2693
Rp2694
aa(lp2695
Vstudies
p2696
ag5
(g9
S'\x0b\xba\xd9\x1bY\xd8\xb6?'
p2697
tp2698
Rp2699
aa(lp2700
Vscan
p2701
ag5
(g9
S'\x1e\xf7q$\xde-\xc4?'
p2702
tp2703
Rp2704
aa(lp2705
g547
ag5
(g9
S'\x1f\xb5\xd1O\\\x83\xc0?'
p2706
tp2707
Rp2708
aa(lp2709
Vradioactive
p2710
ag5
(g9
S'\xf9\xc6\xb1\x98q+\xbc?'
p2711
tp2712
Rp2713
aa(lp2714
g2310
ag5
(g9
S'\x02\xc8v1uT\xb7?'
p2715
tp2716
Rp2717
aa(lp2718
Vnuclear
p2719
ag5
(g9
S"\x01'\x0c\x84\xa1r\xdd?"
p2720
tp2721
Rp2722
aa(lp2723
Vmedicine
p2724
ag5
(g9
S"\x01'\x0c\x84\xa1r\xdd?"
p2725
tp2726
Rp2727
aa(lp2728
g2463
ag5
(g9
S'\x96\xeat\xb6\xa0\xc0\xda?'
p2729
tp2730
Rp2731
aa(lp2732
Vxray
p2733
ag5
(g9
S'U\xf5\r\xb8\xa2\x88\xc7?'
p2734
tp2735
Rp2736
aa(lp2737
g106
ag5
(g9
S'1=\x13\x9c\xdb\xd7\xbf?'
p2738
tp2739
Rp2740
aa(lp2741
Vcirculation
p2742
ag5
(g9
S'\x9c\x8a\x04P._\xbc?'
p2743
tp2744
Rp2745
aa(lp2746
Vlungs
p2747
ag5
(g9
S'\x06#t=7t\xb5?'
p2748
tp2749
Rp2750
aa(lp2751
g1815
ag5
(g9
S'\x916D\xec;\xf8\xd2?'
p2752
tp2753
Rp2754
aa(lp2755
Vct
p2756
ag5
(g9
S'\xd8\xc0\xbf\xb3\x9bC\xce?'
p2757
tp2758
Rp2759
aa(lp2760
Vbody
p2761
ag5
(g9
S'ah\xc8\xc3\xd7\xc0\xbf?'
p2762
tp2763
Rp2764
aa(lp2765
g299
ag5
(g9
S'\xeb\xd0\xcc\x847r\xbc?'
p2766
tp2767
Rp2768
aa(lp2769
Vdrugs
p2770
ag5
(g9
S'\x9fk\x1f*\x17\xe7\xbb?'
p2771
tp2772
Rp2773
aa(lp2774
Vmidthigh
p2775
ag5
(g9
S'\xb5B\xae\xfc*\xee\xb9?'
p2776
tp2777
Rp2778
aa(lp2779
Vskull
p2780
ag5
(g9
S'\xbe\xfe\x9d\x1b\x14f\xb7?'
p2781
tp2782
Rp2783
aa(lp2784
Vbase
p2785
ag5
(g9
S'a\xd5\xac\x9c\xf2\x0c\xb5?'
p2786
tp2787
Rp2788
aasS'REGISTERED DIETITIAN OR NUTRITION PROFESSIO'
p2789
(lp2790
(lp2791
Vmedical
p2792
ag5
(g9
S'f\xb0\xddv\x08\xca\xd7?'
p2793
tp2794
Rp2795
aa(lp2796
Vindividual
p2797
ag5
(g9
S',cq\xf63{\xb7?'
p2798
tp2799
Rp2800
aa(lp2801
Vface
p2802
ag5
(g9
S'$\x83\xec\x7fq\n\xb5?'
p2803
tp2804
Rp2805
aa(lp2806
Vwi
p2807
ag5
(g9
S'\xcaK\x90\xad\xa0\xf2\xb3?'
p2808
tp2809
Rp2810
aa(lp2811
Vregimen
p2812
ag5
(g9
S'\xcaK\x90\xad\xa0\xf2\xb3?'
p2813
tp2814
Rp2815
aa(lp2816
Vreferral
p2817
ag5
(g9
S'\xcaK\x90\xad\xa0\xf2\xb3?'
p2818
tp2819
Rp2820
aa(lp2821
Vneeded
p2822
ag5
(g9
S'\xcaK\x90\xad\xa0\xf2\xb3?'
p2823
tp2824
Rp2825
aa(lp2826
Vinterventions
p2827
ag5
(g9
S'\xcaK\x90\xad\xa0\xf2\xb3?'
p2828
tp2829
Rp2830
aa(lp2831
Vcondition
p2832
ag5
(g9
S'\xcaK\x90\xad\xa0\xf2\xb3?'
p2833
tp2834
Rp2835
aa(lp2836
Vsecond
p2837
ag5
(g9
S'\xe0\x97\x1c9/.\xb0?'
p2838
tp2839
Rp2840
aa(lp2841
Vnutrition
p2842
ag5
(g9
S'\xb4\xcf\xd5\xb9_\xb2\xe5?'
p2843
tp2844
Rp2845
aa(lp2846
Vintervention
p2847
ag5
(g9
S'&i\xb4k\xd0?\xde?'
p2848
tp2849
Rp2850
aa(lp2851
Vassessment
p2852
ag5
(g9
S'\xad\xd4{\x83\x1c8\xc2?'
p2853
tp2854
Rp2855
aa(lp2856
g1534
ag5
(g9
S'\xe1n\x98\x9c.\xa4\xbd?'
p2857
tp2858
Rp2859
aa(lp2860
Vyear
p2861
ag5
(g9
S'!b\x81\x88\x9a\x9c\x99?'
p2862
tp2863
Rp2864
aa(lp2865
Vhours
p2866
ag5
(g9
S'\x8e\xb3d\xbc!\xd9\x96?'
p2867
tp2868
Rp2869
aa(lp2870
Vdisease
p2871
ag5
(g9
S'\xd9\xf2\xdcR\xd1\xc5\x95?'
p2872
tp2873
Rp2874
aa(lp2875
Vreassessment
p2876
ag5
(g9
S'\t\xa5c\x07\x11k\xd3?'
p2877
tp2878
Rp2879
aa(lp2880
Vrenal
p2881
ag5
(g9
S'\xde\xd76*\t~\xad?'
p2882
tp2883
Rp2884
aa(lp2885
g627
ag5
(g9
S'\xe7\x97\xec\xe9\xc0\x1f\xcb?'
p2886
tp2887
Rp2888
aa(lp2889
g213
ag5
(g9
S'\xb6\x0b\x88\xc7\xcdX\xc9?'
p2890
tp2891
Rp2892
aa(lp2893
Vselfmanagement
p2894
ag5
(g9
S'(/\xc6A\xaeq\xbc?'
p2895
tp2896
Rp2897
aa(lp2898
Vdiabetes
p2899
ag5
(g9
S'(/\xc6A\xaeq\xbc?'
p2900
tp2901
Rp2902
aa(lp2903
Vtraining
p2904
ag5
(g9
S'r\xf9\x83\x17\x0e\xd7\xb3?'
p2905
tp2906
Rp2907
aa(lp2908
g682
ag5
(g9
S'\xafj\xde\x9a\xa0\xb4\xab?'
p2909
tp2910
Rp2911
aa(lp2912
Vservices
p2913
ag5
(g9
S'\x88\x11\x15\xa5.\xef\xa8?'
p2914
tp2915
Rp2916
aa(lp2917
Vgroup
p2918
ag5
(g9
S'K\xe8\xc3\xac\x85,\xa4?'
p2919
tp2920
Rp2921
aa(lp2922
Voutpatient
p2923
ag5
(g9
S'\xc3\xeb\xca\xc6)\xe1\xa3?'
p2924
tp2925
Rp2926
aa(lp2927
Vsetting
p2928
ag5
(g9
S' \x8c\x9e4X\xc1\x96?'
p2929
tp2930
Rp2931
aa(lp2932
V15
p2933
ag5
(g9
S' \x8c\x9e4X\xc1\x96?'
p2934
tp2935
Rp2936
aa(lp2937
Vperformed
p2938
ag5
(g9
S'6\xcc\x15!4i\x89?'
p2939
tp2940
Rp2941
aasS'CLINICAL PSYCHOLOGIST'
p2942
(lp2943
(lp2944
g2090
ag5
(g9
S'\x1a"\xfe\xe7\xf9i\xcf?'
p2945
tp2946
Rp2947
aa(lp2948
g225
ag5
(g9
S'\xb3\xfcs\xee\x91\xa4\xcb?'
p2949
tp2950
Rp2951
aa(lp2952
Vdiagnostic
p2953
ag5
(g9
S'\xd7\x1buUiC\xc1?'
p2954
tp2955
Rp2956
aa(lp2957
g123
ag5
(g9
S'\x14\xf5\x85]*\xe3\xc0?'
p2958
tp2959
Rp2960
aa(lp2961
Vpsychological
p2962
ag5
(g9
S'\xf1\xfe\x8a\x88\x0b\x8f\xa6?'
p2963
tp2964
Rp2965
aa(lp2966
Vandor
p2967
ag5
(g9
S'\x7f\xc0uo\x03\x13\xd2?'
p2968
tp2969
Rp2970
aa(lp2971
g41
ag5
(g9
S'7\xab\x99\xeb\xcc"\xcb?'
p2972
tp2973
Rp2974
aa(lp2975
Vpsychotherapy
p2976
ag5
(g9
S'\xe8\xae3\xdf_\x02\xe0?'
p2977
tp2978
Rp2979
aa(lp2980
Vfamily
p2981
ag5
(g9
S'\x9bu\xf1\xa1j\xea\xde?'
p2982
tp2983
Rp2984
aa(lp2985
Vmember
p2986
ag5
(g9
S'\xe1i$\xcc\x96O\xde?'
p2987
tp2988
Rp2989
aa(lp2990
Vbehavior
p2991
ag5
(g9
S'\xa2\x96s\x11\xcc\xb5\xa9?'
p2992
tp2993
Rp2994
aa(lp2995
Vqualified
p2996
ag5
(g9
S'/\xba\x9f\xfb\xf6+\xa1?'
p2997
tp2998
Rp2999
aa(lp3000
Vprofessional
p3001
ag5
(g9
S'/\xba\x9f\xfb\xf6+\xa1?'
p3002
tp3003
Rp3004
aa(lp3005
Vpsychologist
p3006
ag5
(g9
S')\x05,9\xa5\xd9\xc3?'
p3007
tp3008
Rp3009
aa(lp3010
Vneuropsychological
p3011
ag5
(g9
S'\xefz@\x86h\xbf\xbe?'
p3012
tp3013
Rp3014
aa(lp3015
g2033
ag5
(g9
S'i\xa3[\nSk\xb8?'
p3016
tp3017
Rp3018
aa(lp3019
Vreport
p3020
ag5
(g9
S'qeId\xf2\xb9\xb7?'
p3021
tp3022
Rp3023
aa(lp3024
Vinterpretation
p3025
ag5
(g9
S'(<\x08\x9a\xbd\xf2\xb6?'
p3026
tp3027
Rp3028
aa(lp3029
Vtesting
p3030
ag5
(g9
S'9\x92\x7f\xd7k\x91\xb6?'
p3031
tp3032
Rp3033
aa(lp3034
Vphysician
p3035
ag5
(g9
S'\x0c\x9a\x97\xc6\x0e\x05\xb4?'
p3036
tp3037
Rp3038
aa(lp3039
Vneurobehavioral
p3040
ag5
(g9
S'\xf6\xb3\xdb\x95\xf2\x91\xa1?'
p3041
tp3042
Rp3043
aasS'UNKNOWN SUPPLIER/PROVIDER'
p3044
(lp3045
(lp3046
g36
ag5
(g9
S'\xdd\xb2\x1d\x8d>\x96\xd4?'
p3047
tp3048
Rp3049
aa(lp3050
g26
ag5
(g9
S'\x01\x96\xf1&\xa6o\xd0?'
p3051
tp3052
Rp3053
aa(lp3054
g1041
ag5
(g9
S'\xdd\xefl\xffx\x91\xca?'
p3055
tp3056
Rp3057
aa(lp3058
V6
p3059
ag5
(g9
S'\x1b\x8f\xb2\xc28\xad\xc6?'
p3060
tp3061
Rp3062
aa(lp3063
Vinjured
p3064
ag5
(g9
S'\xb4\\\xca\xf6Y\xdf\xc4?'
p3065
tp3066
Rp3067
aa(lp3068
Vill
p3069
ag5
(g9
S'\xb4\\\xca\xf6Y\xdf\xc4?'
p3070
tp3071
Rp3072
aa(lp3073
Vcritically
p3074
ag5
(g9
S'\xb4\\\xca\xf6Y\xdf\xc4?'
p3075
tp3076
Rp3077
aa(lp3078
Vcritical
p3079
ag5
(g9
S'\xb4\\\xca\xf6Y\xdf\xc4?'
p3080
tp3081
Rp3082
aa(lp3083
Vdelivery
p3084
ag5
(g9
S'x\x1c\xc8P\xec\xa3\xc2?'
p3085
tp3086
Rp3087
aa(lp3088
g2128
ag5
(g9
S'd\x0e\xfd\xc6\xfch\xd6?'
p3089
tp3090
Rp3091
aa(lp3092
Vvisits
p3093
ag5
(g9
S'K\xb3q\xd6\xd7\xcd\xd5?'
p3094
tp3095
Rp3096
aa(lp3097
Veye
p3098
ag5
(g9
S'\n\x8b\xbe\n\x99n\xd5?'
p3099
tp3100
Rp3101
aa(lp3102
g892
ag5
(g9
S'\x0eI\x0e\xe7+\x1f\xd0?'
p3103
tp3104
Rp3105
aa(lp3106
Vtreatment
p3107
ag5
(g9
S'\xd9\xf1\xd1+E\x01\xd0?'
p3108
tp3109
Rp3110
aa(lp3111
Vdiagnosis
p3112
ag5
(g9
S'\x16\x07X\xd6)J\xcf?'
p3113
tp3114
Rp3115
aa(lp3116
Vexamination
p3117
ag5
(g9
S'@3\xe7k\xf0D\xcd?'
p3118
tp3119
Rp3120
aa(lp3121
V1
p3122
ag5
(g9
S'\x0c\xca\x92\xff\x8f\xb9\xcc?'
p3123
tp3124
Rp3125
aa(lp3126
Vvision
p3127
ag5
(g9
S'\xce[\x01^\x95\xfb\xc7?'
p3128
tp3129
Rp3130
aa(lp3131
Vdaylight
p3132
ag5
(g9
S'\xce[\x01^\x95\xfb\xc7?'
p3133
tp3134
Rp3135
aa(lp3136
Vconditions
p3137
ag5
(g9
S'\xce[\x01^\x95\xfb\xc7?'
p3138
tp3139
Rp3140
aa(lp3141
Vretina
p3142
ag5
(g9
S'K\xb3q\xd6\xd7\xcd\xc5?'
p3143
tp3144
Rp3145
aa(lp3146
Vphotography
p3147
ag5
(g9
S'K\xb3q\xd6\xd7\xcd\xc5?'
p3148
tp3149
Rp3150
aa(lp3151
Vfield
p3152
ag5
(g9
S'K\xb3q\xd6\xd7\xcd\xc5?'
p3153
tp3154
Rp3155
aa(lp3156
Vsleep
p3157
ag5
(g9
S'\x93\x9a\xd8\xa5\xb0\xe0\xe1?'
p3158
tp3159
Rp3160
aa(lp3161
g1458
ag5
(g9
S'\x1ch\x1c\x05g\xa2\xd4?'
p3162
tp3163
Rp3164
aa(lp3165
g1578
ag5
(g9
S'\xe7\x88Soc\xd9\xce?'
p3166
tp3167
Rp3168
aa(lp3169
g2235
ag5
(g9
S'\xe7\x88Soc\xd9\xce?'
p3170
tp3171
Rp3172
aa(lp3173
Vlab
p3174
ag5
(g9
S'l\xb7\xe1H\xf3\xab\xce?'
p3175
tp3176
Rp3177
aa(lp3178
g2923
ag5
(g9
S'\x8eb\xa5\xc5\x915\xce?'
p3179
tp3180
Rp3181
aa(lp3182
Vmonitoring
p3183
ag5
(g9
S'\xcf\xda\xc9b\x1f\xea\xc6?'
p3184
tp3185
Rp3186
aa(lp3187
Vyears
p3188
ag5
(g9
S'\xeaW?\xc5\r)\xc3?'
p3189
tp3190
Rp3191
aa(lp3192
Volder
p3193
ag5
(g9
S'\xc9\x9c\xc2z\xfd\xf1\xc2?'
p3194
tp3195
Rp3196
aa(lp3197
Vrespiratory
p3198
ag5
(g9
S'\xc9)\xf2xM\xd5\xc2?'
p3199
tp3200
Rp3201
aa(lp3202
Vpressured
p3203
ag5
(g9
S'\x12T\xb6\xab\xb60\xc0?'
p3204
tp3205
Rp3206
aa(lp3207
Vmask
p3208
ag5
(g9
S'\x12T\xb6\xab\xb60\xc0?'
p3209
tp3210
Rp3211
aa(lp3212
Vcontinued
p3213
ag5
(g9
S'\x12T\xb6\xab\xb60\xc0?'
p3214
tp3215
Rp3216
aa(lp3217
Vassistance
p3218
ag5
(g9
S'l\xb7\xe1H\xf3\xab\xbe?'
p3219
tp3220
Rp3221
aa(lp3222
Vbreathing
p3223
ag5
(g9
S'\xae>k5\xf4?\xbc?'
p3224
tp3225
Rp3226
aa(lp3227
Vtube
p3228
ag5
(g9
S'\n`\x87\xd1\x8f{\xb9?'
p3229
tp3230
Rp3231
aa(lp3232
g319
ag5
(g9
S'\r\xbf\x02\xd9\xec\x16\xb0?'
p3233
tp3234
Rp3235
aasS'INTERVENTIONAL CARDIOLOGY'
p3236
(lp3237
(lp3238
g2663
ag5
(g9
S'p\xfcW\xf5pj\xdf?'
p3239
tp3240
Rp3241
aa(lp3242
g441
ag5
(g9
S'\xf7\xe6\x9ej\x9b\xd8\xcc?'
p3243
tp3244
Rp3245
aa(lp3246
g225
ag5
(g9
S'\xcf\xb2\xecF\xe2`\xcc?'
p3247
tp3248
Rp3249
aa(lp3250
Vekg
p3251
ag5
(g9
S'X\xa6`\xa6\xf7\x05\xc8?'
p3252
tp3253
Rp3254
aa(lp3255
Vinterpretation
p3256
ag5
(g9
S'\xcfCz\x11\x02\xaa\xc1?'
p3257
tp3258
Rp3259
aa(lp3260
g1092
ag5
(g9
S'\x9d\xd1\xf2y\x9b\x08\xc1?'
p3261
tp3262
Rp3263
aa(lp3264
g699
ag5
(g9
S'\xcd\xd4\xa7=b;\xc0?'
p3265
tp3266
Rp3267
aa(lp3268
g704
ag5
(g9
S'\xcd\xd4\xa7=b;\xc0?'
p3269
tp3270
Rp3271
aa(lp3272
g709
ag5
(g9
S'\x82\x95d\xc0a\x10\xc0?'
p3273
tp3274
Rp3275
aa(lp3276
g138
ag5
(g9
S'\xbarg\xe8\xf9\xed\xc5?'
p3277
tp3278
Rp3279
aa(lp3280
Vinsertion
p3281
ag5
(g9
S'\xcc\xaa\x97\xf4\xbdp\xc3?'
p3282
tp3283
Rp3284
aa(lp3285
g143
ag5
(g9
S'E\xf4\x9620a\xc3?'
p3286
tp3287
Rp3288
aa(lp3289
Vcatheter
p3290
ag5
(g9
S'\x95\x98\x9c\xb0u\xf3\xc1?'
p3291
tp3292
Rp3293
aa(lp3294
Vpacemaker
p3295
ag5
(g9
S'$\xb0|\x1e\xd5\xa6\xbe?'
p3296
tp3297
Rp3298
aa(lp3299
g2444
ag5
(g9
S'\xf2H\x0bMn\xe9\xcd?'
p3300
tp3301
Rp3302
aa(lp3303
g173
ag5
(g9
S'v\xb0\xed\xc6\xf1\x99\xc5?'
p3304
tp3305
Rp3306
aa(lp3307
g2463
ag5
(g9
S'\x01\xbc\xcc\x89\xc5\xd6\xc3?'
p3308
tp3309
Rp3310
aa(lp3311
Vscan
p3312
ag5
(g9
S'\x18e\xd1\xab\x10\t\xc2?'
p3313
tp3314
Rp3315
aa(lp3316
Vincluding
p3317
ag5
(g9
S'\xc8!y\x0b\x92_\xc1?'
p3318
tp3319
Rp3320
aa(lp3321
g178
ag5
(g9
S'}1\x05\x1c:U\xc1?'
p3322
tp3323
Rp3324
aa(lp3325
Vvessel
p3326
ag5
(g9
S'\xda\x92#A=\x02\xc1?'
p3327
tp3328
Rp3329
aa(lp3330
g2006
ag5
(g9
S'<R\x18Z\x00w\xd0?'
p3331
tp3332
Rp3333
aa(lp3334
Vleft
p3335
ag5
(g9
S'\xe7e`\x90\x1c\x03\xcf?'
p3336
tp3337
Rp3338
aa(lp3339
Vvessels
p3340
ag5
(g9
S'\x90\xcb\x9a\x80\x02p\xc2?'
p3341
tp3342
Rp3343
aa(lp3344
Vflow
p3345
ag5
(g9
S'w\x05\xad.\xb44\xc2?'
p3346
tp3347
Rp3348
aa(lp3349
g916
ag5
(g9
S'?\x8d\xc0\xbbt\xf9\xc1?'
p3350
tp3351
Rp3352
aa(lp3353
Vgrafts
p3354
ag5
(g9
S'\xc4\x19o%\x19\n\xc0?'
p3355
tp3356
Rp3357
aa(lp3358
g1282
ag5
(g9
S'\xdd4\xbc P\xcb\xbf?'
p3359
tp3360
Rp3361
aa(lp3362
g921
ag5
(g9
S'\xcd~H\xf2\xd9\x8d\xbf?'
p3363
tp3364
Rp3365
aa(lp3366
Vvalve
p3367
ag5
(g9
S'\xd7\x96A,d\x07\xbf?'
p3368
tp3369
Rp3370
aasS'CLINICAL NURSE SPECIALIST'
p3371
(lp3372
(lp3373
g225
ag5
(g9
S'\x9c\xf6\xc9\xf0"j\xdc?'
p3374
tp3375
Rp3376
aa(lp3377
g441
ag5
(g9
S'\x1c\xc33\x07\xd1\xda\xd7?'
p3378
tp3379
Rp3380
aa(lp3381
g699
ag5
(g9
S'|\xca<E\xfe\xf7\xd6?'
p3382
tp3383
Rp3384
aa(lp3385
g723
ag5
(g9
S'bY\xaf\xec\xfd\x8f\xcb?'
p3386
tp3387
Rp3388
aa(lp3389
g704
ag5
(g9
S'\xdfPI\x1f\xfe\xef\xc8?'
p3390
tp3391
Rp3392
aa(lp3393
g709
ag5
(g9
S'/\xf0\xbf\x93\xed\xad\xc8?'
p3394
tp3395
Rp3396
aa(lp3397
g2090
ag5
(g9
S'0\x82\x1b\x7fq\x1b\xc1?'
p3398
tp3399
Rp3400
aa(lp3401
g2792
ag5
(g9
S'\xb2e\xaf\x94\xa10\xbd?'
p3402
tp3403
Rp3404
aa(lp3405
Vassisted
p3406
ag5
(g9
S'X\xce\x85@\xd7\x9c\xb6?'
p3407
tp3408
Rp3409
aa(lp3410
Vliving
p3411
ag5
(g9
S'E\x8c\x83/y\xe4\xb5?'
p3412
tp3413
Rp3414
aa(lp3415
g41
ag5
(g9
S'\xaf\x97\x0b\xf0\x99\x80\xd6?'
p3416
tp3417
Rp3418
aa(lp3419
g852
ag5
(g9
S'\xdbR\x04br/\xbc?'
p3420
tp3421
Rp3422
aa(lp3423
g269
ag5
(g9
S'\x1b\x8fI\x8c}\xf4\xaa?'
p3424
tp3425
Rp3426
aa(lp3427
Vfacility
p3428
ag5
(g9
S'\xff\xdap\xd0w\xaa\xd1?'
p3429
tp3430
Rp3431
aa(lp3432
Vnursing
p3433
ag5
(g9
S'%kOJt%\xd1?'
p3434
tp3435
Rp3436
aa(lp3437
g877
ag5
(g9
S'\x88{<\x12\xfb\\\xc8?'
p3438
tp3439
Rp3440
aa(lp3441
g882
ag5
(g9
S'\x8c\xd55\x1d\xe5\x84\xc2?'
p3442
tp3443
Rp3444
aa(lp3445
g2141
ag5
(g9
S'\x01r\x16s=\xc2\xd6?'
p3446
tp3447
Rp3448
aa(lp3449
Vmember
p3450
ag5
(g9
S'\x01r\x16s=\xc2\xd6?'
p3451
tp3452
Rp3453
aa(lp3454
Vfamily
p3455
ag5
(g9
S'\x12\x1f\x8dm\x1eW\xd6?'
p3456
tp3457
Rp3458
aa(lp3459
Vandor
p3460
ag5
(g9
S'\xde\xfdS%e\xbe\xc9?'
p3461
tp3462
Rp3463
aa(lp3464
Vevaluation
p3465
ag5
(g9
S'\xb6\\\xc9t\x90\xb7\xc3?'
p3466
tp3467
Rp3468
aa(lp3469
g2938
ag5
(g9
S'Q\xf0\x0c\x16\xf9\xa9\xbf?'
p3470
tp3471
Rp3472
aa(lp3473
g637
ag5
(g9
S'}F\x90\x8fvA\xb7?'
p3474
tp3475
Rp3476
aa(lp3477
Vdiagnostic
p3478
ag5
(g9
S'\xebO\x8bBY\xcb\xb0?'
p3479
tp3480
Rp3481
aasS'NEPHROLOGY'
p3482
(lp3483
(lp3484
g723
ag5
(g9
S'<=\xc0\xc9\xf8\x9f\xbe?'
p3485
tp3486
Rp3487
aa(lp3488
g26
ag5
(g9
S'\xd9&\x19~R_\xd7?'
p3489
tp3490
Rp3491
aa(lp3492
g36
ag5
(g9
S'\xda\x0c\xba\x85\xb2;\xd6?'
p3493
tp3494
Rp3495
aa(lp3496
g41
ag5
(g9
S'\xc8\xc4N\xee\xa4\x1b\xd1?'
p3497
tp3498
Rp3499
aa(lp3500
g31
ag5
(g9
S'\x15\t\xff1\x93j\xc8?'
p3501
tp3502
Rp3503
aa(lp3504
g46
ag5
(g9
S'\x12\x0c+\x94\xd5\x99\xc5?'
p3505
tp3506
Rp3507
aa(lp3508
g51
ag5
(g9
S'Z\xba\xaa\x81\xe0m\xc5?'
p3509
tp3510
Rp3511
aa(lp3512
Vservices
p3513
ag5
(g9
S'?Pm\xbes\x1c\xc4?'
p3514
tp3515
Rp3516
aa(lp3517
Vdialysis
p3518
ag5
(g9
S'\xcd\x9ee\x91H.\xd3?'
p3519
tp3520
Rp3521
aa(lp3522
g400
ag5
(g9
S'\xf8\xaa7\x05\x1a\xd3\xcd?'
p3523
tp3524
Rp3525
aa(lp3526
g405
ag5
(g9
S'\xaf\x06\xf1|H\x9a\xcb?'
p3527
tp3528
Rp3529
aa(lp3530
g178
ag5
(g9
S'xM\xdd\xe9\xf5\xbe\xc6?'
p3531
tp3532
Rp3533
aa(lp3534
Vage
p3535
ag5
(g9
S'\xb03\xd6\xe9qF\xc5?'
p3536
tp3537
Rp3538
aa(lp3539
Vyears
p3540
ag5
(g9
S'2\t7\x90\xceO\xc4?'
p3541
tp3542
Rp3543
aa(lp3544
Volder
p3545
ag5
(g9
S'2\t7\x90\xceO\xc4?'
p3546
tp3547
Rp3548
aa(lp3549
Vmonth
p3550
ag5
(g9
S'q\xdb\xf4\x9b\x08\x1a\xd1?'
p3551
tp3552
Rp3553
aa(lp3554
g1282
ag5
(g9
S'\x88Osr\xfc)\xcf?'
p3555
tp3556
Rp3557
aa(lp3558
g921
ag5
(g9
S'\xb5\xb5`;\xbf\xd1\xcb?'
p3559
tp3560
Rp3561
aa(lp3562
Vvisits
p3563
ag5
(g9
S'\xfe\xd6\x12\x8e\xc7\x10\xca?'
p3564
tp3565
Rp3566
aa(lp3567
Vhemodialysis
p3568
ag5
(g9
S'\x80\xcfX\x8e\xc0~\xc3?'
p3569
tp3570
Rp3571
aa(lp3572
g430
ag5
(g9
S'\x15\xfcK\xda\xaf{\xbe?'
p3573
tp3574
Rp3575
aasS'CERTIFIED NURSE MIDWIFE'
p3576
(lp3577
(lp3578
g1862
ag5
(g9
S'\xe3X\x1b\x8f\x00R\xd3?'
p3579
tp3580
Rp3581
aa(lp3582
g1837
ag5
(g9
S'\xef\\\xbfd\xb6\xfc\xd1?'
p3583
tp3584
Rp3585
aa(lp3586
g441
ag5
(g9
S'*\x0c\xda\xee\x90\x8b\xd0?'
p3587
tp3588
Rp3589
aa(lp3590
g1604
ag5
(g9
S'\xe7\xef\x8b6QV\xd0?'
p3591
tp3592
Rp3593
aa(lp3594
g225
ag5
(g9
S'[\xb7\xb11\xed\xbe\xcf?'
p3595
tp3596
Rp3597
aa(lp3598
g1876
ag5
(g9
S'S\xd5\x8c\x1b\xf8P\xcf?'
p3599
tp3600
Rp3601
aa(lp3602
g1881
ag5
(g9
S'oFu)\x13\x80\xcc?'
p3603
tp3604
Rp3605
aa(lp3606
g723
ag5
(g9
S'\xa0\x87\xe5\xf1R\x9a\xc9?'
p3607
tp3608
Rp3609
aa(lp3610
Vexamination
p3611
ag5
(g9
S'K\x1c\xda\xc5\xc0\xce\xc3?'
p3612
tp3613
Rp3614
aa(lp3615
g450
ag5
(g9
S'\x0bd\xcf\xfb\xd3K\xae?'
p3616
tp3617
Rp3618
aa(lp3619
g331
ag5
(g9
S'\x0bd\xcf\xfb\xd3K\xae?'
p3620
tp3621
Rp3622
aa(lp3623
g562
ag5
(g9
S'\x9d\xce\xdc\xf9\xe5s\xda?'
p3624
tp3625
Rp3626
aa(lp3627
g557
ag5
(g9
S'\xdf\x9e\x9c\xcb\t\x07\xda?'
p3628
tp3629
Rp3630
aa(lp3631
g728
ag5
(g9
S'\x1c(k\xaa\x1b\x0b\xd8?'
p3632
tp3633
Rp3634
aa(lp3635
Vpreparing
p3636
ag5
(g9
S'\xa3\x06\xda_\xbf9\xce?'
p3637
tp3638
Rp3639
aa(lp3640
Vconveyance
p3641
ag5
(g9
S'\xa3\x06\xda_\xbf9\xce?'
p3642
tp3643
Rp3644
aa(lp3645
Vpapanicolaou
p3646
ag5
(g9
S')\xf3z$"}\xcd?'
p3647
tp3648
Rp3649
aa(lp3650
Vobtaining
p3651
ag5
(g9
S'd\xc6;oG)\xcc?'
p3652
tp3653
Rp3654
aa(lp3655
Vlaboratory
p3656
ag5
(g9
S'\xce>\x0fP\xfb\x8e\xcb?'
p3657
tp3658
Rp3659
aa(lp3660
g1578
ag5
(g9
S'\xb7\xae\x0c_\x11P\xd0?'
p3661
tp3662
Rp3663
aa(lp3664
g2235
ag5
(g9
S'\x88T/\xb8\xb1\x84\xcd?'
p3665
tp3666
Rp3667
aa(lp3668
g2923
ag5
(g9
S'\xd7\x91\x84@\xf1\xe7\xcc?'
p3669
tp3670
Rp3671
aa(lp3672
g1458
ag5
(g9
S'l\xa1\xa1\xd0\xb5\x04\xcb?'
p3673
tp3674
Rp3675
aasS'PEDIATRIC MEDICINE'
p3676
(lp3677
(lp3678
g699
ag5
(g9
S'\x07p\xa2\xe6\x14\x9b\xd9?'
p3679
tp3680
Rp3681
aa(lp3682
g723
ag5
(g9
S'N%\x11$b"\xcf?'
p3683
tp3684
Rp3685
aa(lp3686
Vinjection
p3687
ag5
(g9
S'\xf6v\xffC\xb1\x9c\xc3?'
p3688
tp3689
Rp3690
aa(lp3691
g1314
ag5
(g9
S'N\xf2~_c\x80\xbf?'
p3692
tp3693
Rp3694
aa(lp3695
g982
ag5
(g9
S'N\xf2~_c\x80\xbf?'
p3696
tp3697
Rp3698
aa(lp3699
g987
ag5
(g9
S'\x93\x10\x06p\xb1\x8a\xb9?'
p3700
tp3701
Rp3702
aa(lp3703
g269
ag5
(g9
S'*\xf4\xca\x9c\x10)\xbf?'
p3704
tp3705
Rp3706
aa(lp3707
g1041
ag5
(g9
S"\xf2\xfa3'/]\xbc?"
p3708
tp3709
Rp3710
aa(lp3711
Vdepartment
p3712
ag5
(g9
S'v\xba!\xaa\xb3\x15\xbb?'
p3713
tp3714
Rp3715
aa(lp3716
Vproblem
p3717
ag5
(g9
S'\xf8G2\xdaO\xb0\xba?'
p3718
tp3719
Rp3720
aa(lp3721
Vemergency
p3722
ag5
(g9
S'\xf8G2\xdaO\xb0\xba?'
p3723
tp3724
Rp3725
aa(lp3726
g495
ag5
(g9
S'$\xd3\xd1\x1b\xe8\x9d\xb7?'
p3727
tp3728
Rp3729
aa(lp3730
g1368
ag5
(g9
S'N\x91\x90\xe0\xb1@\xb2?'
p3731
tp3732
Rp3733
aa(lp3734
g208
ag5
(g9
S'\x8c~\xdc\xee\x82\xd9\xda?'
p3735
tp3736
Rp3737
aa(lp3738
g213
ag5
(g9
S'1j\x87\xd5\x83\x9e\xd9?'
p3739
tp3740
Rp3741
aa(lp3742
g1458
ag5
(g9
S'\xf5\xd4\xa2]CW\xd4?'
p3743
tp3744
Rp3745
aa(lp3746
g2235
ag5
(g9
S'\x17\xba\xb3[\x9c5\xd4?'
p3747
tp3748
Rp3749
aa(lp3750
g2923
ag5
(g9
S'\x11\x1e\xcf\xd3J\xca\xd3?'
p3751
tp3752
Rp3753
aa(lp3754
g1282
ag5
(g9
S'DJ\xf1\xf7\xad\xcc\xbe?'
p3755
tp3756
Rp3757
aa(lp3758
g916
ag5
(g9
S'\xa2\x08Ae<:\xbd?'
p3759
tp3760
Rp3761
aa(lp3762
g926
ag5
(g9
S'\xf0\xdf\xb1\x8c\x00_\xb5?'
p3763
tp3764
Rp3765
aa(lp3766
g319
ag5
(g9
S'!\xed\xe4suz\xb4?'
p3767
tp3768
Rp3769
aa(lp3770
Vadministration
p3771
ag5
(g9
S'.\xaa"\xdf\xc3\xab\xab?'
p3772
tp3773
Rp3774
aasS'PORTABLE X-RAY'
p3775
(lp3776
(lp3777
Vxray
p3778
ag5
(g9
S'\xd1\xa8\x01\x82\xd0\x92\xe4?'
p3779
tp3780
Rp3781
aa(lp3782
Vviews
p3783
ag5
(g9
S'h\xe9\xf1\x8a`a\xe2?'
p3784
tp3785
Rp3786
aa(lp3787
Vminimum
p3788
ag5
(g9
S"'\xd4\x06\x1f\xfb\x9b\xcf?"
p3789
tp3790
Rp3791
aa(lp3792
Vequipment
p3793
ag5
(g9
S'\x02O\xa9&Id\xc5?'
p3794
tp3795
Rp3796
aa(lp3797
Vtransportation
p3798
ag5
(g9
S'g\x87#\xfe\x82\x8e\xbf?'
p3799
tp3800
Rp3801
aa(lp3802
Vseen
p3803
ag5
(g9
S'g\x87#\xfe\x82\x8e\xbf?'
p3804
tp3805
Rp3806
aa(lp3807
Vpersonnel
p3808
ag5
(g9
S'g\x87#\xfe\x82\x8e\xbf?'
p3809
tp3810
Rp3811
aa(lp3812
Vportable
p3813
ag5
(g9
S'\xa2\xcb\r\x0br\x11\xbd?'
p3814
tp3815
Rp3816
aa(lp3817
Vlocation
p3818
ag5
(g9
S'\xf0\xe5\x1d\xd9\xaa\xf3\xbc?'
p3819
tp3820
Rp3821
aa(lp3822
Vview
p3823
ag5
(g9
S'7\x7fmF3}\xbb?'
p3824
tp3825
Rp3826
aa(lp3827
Vtrip
p3828
ag5
(g9
S'\x81#\xadP\x8e\xa6\xb6?'
p3829
tp3830
Rp3831
aa(lp3832
Vchest
p3833
ag5
(g9
S'.\xe6\xef\xe7\x92\x01\xb5?'
p3834
tp3835
Rp3836
aa(lp3837
Vhome
p3838
ag5
(g9
S'i\xe9\x9a\x15\xbc\x87\xb4?'
p3839
tp3840
Rp3841
aa(lp3842
Vsetup
p3843
ag5
(g9
S'K\x99\xbe\x90\x1cM\xb3?'
p3844
tp3845
Rp3846
aa(lp3847
Vhand
p3848
ag5
(g9
S'\x90\xe5}M\x16\x99\xb2?'
p3849
tp3850
Rp3851
aa(lp3852
g528
ag5
(g9
S'G\x10\xe7ShX\xb2?'
p3853
tp3854
Rp3855
aa(lp3856
g2310
ag5
(g9
S'\x8d\xb8\x89\xd5\x9f\xda\xb0?'
p3857
tp3858
Rp3859
aa(lp3860
Vankle
p3861
ag5
(g9
S'\xc8\xaf\x8a:/(\xae?'
p3862
tp3863
Rp3864
aa(lp3865
g2305
ag5
(g9
S'eP\xd8\xa5\xae\xb4\xad?'
p3866
tp3867
Rp3868
aa(lp3869
Vshoulder
p3870
ag5
(g9
S'\xb9aI,l4\xad?'
p3871
tp3872
Rp3873
aasS'INDEPENDENT DIAGNOSTIC TESTING FACILITY'
p3874
(lp3875
(lp3876
Vabdomen
p3877
ag5
(g9
S'\xbf\x83\xa1\xff\x1dJ\xd6?'
p3878
tp3879
Rp3880
aa(lp3881
Vflow
p3882
ag5
(g9
S'\xa9\x07\xceP\x1d1\xd5?'
p3883
tp3884
Rp3885
aa(lp3886
g2387
ag5
(g9
S'\x17\xa99\xc95=\xcf?'
p3887
tp3888
Rp3889
aa(lp3890
Vdirection
p3891
ag5
(g9
S'\x90\xe3\xa3g\xd4\xd6\xc8?'
p3892
tp3893
Rp3894
aa(lp3895
Vcolordepicted
p3896
ag5
(g9
S'\x90\xe3\xa3g\xd4\xd6\xc8?'
p3897
tp3898
Rp3899
aa(lp3900
Vscanning
p3901
ag5
(g9
S'\xe4\x1ftEJ}\xc8?'
p3902
tp3903
Rp3904
aa(lp3905
Vvalve
p3906
ag5
(g9
S'\x1aT\x16\xebE&\xc8?'
p3907
tp3908
Rp3909
aa(lp3910
Voutside
p3911
ag5
(g9
S'\x83\xf5+\xf4\xa3\xd1\xc7?'
p3912
tp3913
Rp3914
aa(lp3915
Vhead
p3916
ag5
(g9
S'Y\xe8\x00V\x8d\x94\xc6?'
p3917
tp3918
Rp3919
aa(lp3920
g2663
ag5
(g9
S'\x92\x9a1Q\x01u\xc5?'
p3921
tp3922
Rp3923
aa(lp3924
Vbrain
p3925
ag5
(g9
S'\xf2yR\x1b\xaf\xee\xc4?'
p3926
tp3927
Rp3928
aa(lp3929
g2392
ag5
(g9
S']\xca \x9f\x8e/\xc4?'
p3930
tp3931
Rp3932
aa(lp3933
Vrate
p3934
ag5
(g9
S']\xca \x9f\x8e/\xc4?'
p3935
tp3936
Rp3937
aa(lp3938
Vneck
p3939
ag5
(g9
S'\xdd\xfe\x05\x85h\xb6\xc3?'
p3940
tp3941
Rp3942
aa(lp3943
Vfunction
p3944
ag5
(g9
S'\x12.\xea\x1f\xade\xc1?'
p3945
tp3946
Rp3947
aa(lp3948
g3611
ag5
(g9
S'UE!\xeb#\x05\xc1?'
p3949
tp3950
Rp3951
aa(lp3952
g2444
ag5
(g9
S"\xf6\xa5':\xd1\x1a\xe8?"
p3953
tp3954
Rp3955
aa(lp3956
g2458
ag5
(g9
S'\x1d&|\x94\xa6p\xd0?'
p3957
tp3958
Rp3959
aa(lp3960
g2463
ag5
(g9
S'YQi\xb7<\xd0\xc7?'
p3961
tp3962
Rp3963
aa(lp3964
g3317
ag5
(g9
S'+\xc5v\xac\xf2c\xc4?'
p3965
tp3966
Rp3967
aa(lp3968
Varteries
p3969
ag5
(g9
S'Q\xa6\x947\xeb\xd4\xc2?'
p3970
tp3971
Rp3972
aa(lp3973
Vveins
p3974
ag5
(g9
S'\xcd\x95\xd5D\xd7\x96\xc2?'
p3975
tp3976
Rp3977
aa(lp3978
Vfunctional
p3979
ag5
(g9
S'\xcd\x95\xd5D\xd7\x96\xc2?'
p3980
tp3981
Rp3982
aa(lp3983
Vmaneuvers
p3984
ag5
(g9
S'r\x84\x08\x94\x1b\xe5\xc1?'
p3985
tp3986
Rp3987
aa(lp3988
Varms
p3989
ag5
(g9
S'\xc9B\xea~\xac\xa2\xc0?'
p3990
tp3991
Rp3992
aa(lp3993
Vassessment
p3994
ag5
(g9
S'C\xcc0 \xda\xaa\xbd?'
p3995
tp3996
Rp3997
aa(lp3998
Vbreast
p3999
ag5
(g9
S'rcb\xdf\x0c\t\xb7?'
p4000
tp4001
Rp4002
aa(lp4003
Vgrafts
p4004
ag5
(g9
S'\xec\xae\xe582\xb7\xb4?'
p4005
tp4006
Rp4007
aasS'GASTROENTEROLOGY'
p4008
(lp4009
(lp4010
g1191
ag5
(g9
S'\xe1H\xae\xa1jK\xd8?'
p4011
tp4012
Rp4013
aa(lp4014
Vesophagus
p4015
ag5
(g9
S'A\xa5\xc1\xafp\xfd\xc1?'
p4016
tp4017
Rp4018
aa(lp4019
g1205
ag5
(g9
S'\xf8{\x10C\xe4S\xbd?'
p4020
tp4021
Rp4022
aa(lp4023
Vbowel
p4024
ag5
(g9
S'P\xe1\x94\x88=r\xdb?'
p4025
tp4026
Rp4027
aa(lp4028
g26
ag5
(g9
S'\xbe\x02\x9c\xc8;O\xd2?'
p4029
tp4030
Rp4031
aa(lp4032
g36
ag5
(g9
S'\x9a\xe9e\xc7\x99\x8d\xd0?'
p4033
tp4034
Rp4035
aa(lp4036
Vstomach
p4037
ag5
(g9
S'\xa1E\xb7\x84\xd59\xc8?'
p4038
tp4039
Rp4040
aa(lp4041
g46
ag5
(g9
S'\x08\x9d\x80\x0c\xac\xfb\xc6?'
p4042
tp4043
Rp4044
aa(lp4045
g31
ag5
(g9
S'.\xe46\x91$\xf9\xc6?'
p4046
tp4047
Rp4048
aa(lp4049
g51
ag5
(g9
S'\x18b\xf2\xe8\xa2\xbf\xc6?'
p4050
tp4051
Rp4052
aa(lp4053
g390
ag5
(g9
S'\xc2\xc2\x87\xfbyt\xc4?'
p4054
tp4055
Rp4056
aa(lp4057
g400
ag5
(g9
S'\x16\x9e\xad/\x89\x00\xc0?'
p4058
tp4059
Rp4060
aa(lp4061
g405
ag5
(g9
S'\x80U\xdbn\r\xaf\xbf?'
p4062
tp4063
Rp4064
aa(lp4065
g877
ag5
(g9
S'\x90Ey\xaa?\xa8\xbf?'
p4066
tp4067
Rp4068
aa(lp4069
g1264
ag5
(g9
S'\xd5\xdcyW\xbe#\xbf?'
p4070
tp4071
Rp4072
aa(lp4073
g395
ag5
(g9
S'\xa34@Q\x14\x85\xbe?'
p4074
tp4075
Rp4076
aa(lp4077
Vusing
p4078
ag5
(g9
S'\xba\x8f\xa8\xaa\xe6\xab\xd1?'
p4079
tp4080
Rp4081
aa(lp4082
Vlarge
p4083
ag5
(g9
S'8\xb5\xde\xbf\xa0\xb9\xcb?'
p4084
tp4085
Rp4086
aa(lp4087
g2375
ag5
(g9
S't\xd2\xac\xc7%t\xc5?'
p4088
tp4089
Rp4090
aa(lp4091
Vsmall
p4092
ag5
(g9
S'AiZ/7S\xc4?'
p4093
tp4094
Rp4095
aa(lp4096
Vbiopsy
p4097
ag5
(g9
S'\xdd\x10\xf5\x03\x0f\x9c\xc0?'
p4098
tp4099
Rp4100
aasS'CARDIOLOGY'
p4101
(lp4102
(lp4103
g225
ag5
(g9
S'D-\xfe\xbe\xe2H\xcf?'
p4104
tp4105
Rp4106
aa(lp4107
g699
ag5
(g9
S'V\x8b.*I\xee\xc2?'
p4108
tp4109
Rp4110
aa(lp4111
g704
ag5
(g9
S'\xfbKB\xf12v\xc2?'
p4112
tp4113
Rp4114
aa(lp4115
g709
ag5
(g9
S'.\xd8~_\xa8P\xc2?'
p4116
tp4117
Rp4118
aa(lp4119
g718
ag5
(g9
S'\x106\xe5\x02\xc7\xa5\xc1?'
p4120
tp4121
Rp4122
aa(lp4123
Vdruginduced
p4124
ag5
(g9
S'\xd0\xfb\xab\xbe\x80x\xc0?'
p4125
tp4126
Rp4127
aa(lp4128
g2676
ag5
(g9
S'\x15+z\x97Om\xbf?'
p4129
tp4130
Rp4131
aa(lp4132
g26
ag5
(g9
S'\xc5\xaeI\x11]\xf2\xcf?'
p4133
tp4134
Rp4135
aa(lp4136
g138
ag5
(g9
S'CGB\xf5\xe6\x91\xc3?'
p4137
tp4138
Rp4139
aa(lp4140
g143
ag5
(g9
S'ev\xfa2\xdd\x84\xc0?'
p4141
tp4142
Rp4143
aa(lp4144
Vflow
p4145
ag5
(g9
S'\x94.\xe4\x0e\x8cV\xbf?'
p4146
tp4147
Rp4148
aa(lp4149
Vekg
p4150
ag5
(g9
S'\xdf\x9f\x8fmz\x9f\xc8?'
p4151
tp4152
Rp4153
aa(lp4154
g2444
ag5
(g9
S'C\xa9!Zj\xfd\xc5?'
p4155
tp4156
Rp4157
aa(lp4158
g400
ag5
(g9
S'\xcd\x0f\xcb\x03\x8c\x0f\xc2?'
p4159
tp4160
Rp4161
aa(lp4162
g877
ag5
(g9
S'\xb0\x1aw)\xb8\xbe\xc0?'
p4163
tp4164
Rp4165
aa(lp4166
g395
ag5
(g9
S'S\xe2\xd0\xa5\x05q\xc0?'
p4167
tp4168
Rp4169
aa(lp4170
Vexercise
p4171
ag5
(g9
S'\xc7\xcb\x96!X\x06\xc0?'
p4172
tp4173
Rp4174
aa(lp4175
Vleft
p4176
ag5
(g9
S'\x01!\xa5\xa9GF\xbf?'
p4177
tp4178
Rp4179
aa(lp4180
Vheart
p4181
ag5
(g9
S'\xd1b\xc8\x08\xe1\xe4\xdb?'
p4182
tp4183
Rp4184
aa(lp4185
g2006
ag5
(g9
S'\xf8\xdf\xea\x05\x98\xce\xcc?'
p4186
tp4187
Rp4188
aa(lp4189
g3020
ag5
(g9
S'a\xcfaa<\x88\xc6?'
p4190
tp4191
Rp4192
aa(lp4193
g3025
ag5
(g9
S'~\x7f,\xae\xa5\xec\xc3?'
p4194
tp4195
Rp4196
aa(lp4197
g218
ag5
(g9
S'\x19\x1b@\xa2t\x1a\xc0?'
p4198
tp4199
Rp4200
aasS'CLINICAL SOCIAL WORKER'
p4201
(lp4202
(lp4203
g225
ag5
(g9
S'!Dk\xdb\x147\xcc?'
p4204
tp4205
Rp4206
aa(lp4207
Vgroup
p4208
ag5
(g9
S'v{[%\x99\xcf\x8a?'
p4209
tp4210
Rp4211
aa(lp4212
g2792
ag5
(g9
S'\xbc\xa0;\x01z\xa7T?'
p4213
tp4214
Rp4215
aa(lp4216
Vservices
p4217
ag5
(g9
S'h\x97\xea\xfbq\xf4K?'
p4218
tp4219
Rp4220
aa(lp4221
g2967
ag5
(g9
S"\x1b\nf'\x9bl\xd3?"
p4222
tp4223
Rp4224
aa(lp4225
g41
ag5
(g9
S'\xa6q1\xf70Z\xcc?'
p4226
tp4227
Rp4228
aa(lp4229
V60
p4230
ag5
(g9
S'q\x95O\x82\x1f\xfef?'
p4231
tp4232
Rp4233
aa(lp4234
g2976
ag5
(g9
S'us}\xf5+\x0c\xe1?'
p4235
tp4236
Rp4237
aa(lp4238
g2981
ag5
(g9
S'x\xbcN\xc0\xf0W\xe0?'
p4239
tp4240
Rp4241
aa(lp4242
g2986
ag5
(g9
S'\xb0p2\xc7Q1\xe0?'
p4243
tp4244
Rp4245
aa(lp4246
g887
ag5
(g9
S'\xbf\x00P\xcb`#\xc4?'
p4247
tp4248
Rp4249
aa(lp4250
g907
ag5
(g9
S'\x00\x95\xbd\xab\xd4\xc7\xb6?'
p4251
tp4252
Rp4253
aa(lp4254
Vevaluation
p4255
ag5
(g9
S'\xf25T;\xee\xd0\xb5?'
p4256
tp4257
Rp4258
aa(lp4259
Vinteractive
p4260
ag5
(g9
S'\x12\xb4\x19p#\x01x?'
p4261
tp4262
Rp4263
aa(lp4264
g617
ag5
(g9
S"\xcb\xf8'\xbc\xb6_i?"
p4265
tp4266
Rp4267
aa(lp4268
Vcrisis
p4269
ag5
(g9
S'^\x1a\x8a\xe4bxd?'
p4270
tp4271
Rp4272
aa(lp4273
g218
ag5
(g9
S'l\xd3\xcf\x97\xef\x8eu?'
p4274
tp4275
Rp4276
aa(lp4277
Vbehavior
p4278
ag5
(g9
S'\xb0aT;^\xa0b?'
p4279
tp4280
Rp4281
aa(lp4282
V45
p4283
ag5
(g9
S'\xb0aT;^\xa0b?'
p4284
tp4285
Rp4286
aa(lp4287
Vintervention
p4288
ag5
(g9
S'\xf8L?\x1a\x05\xc5Z?'
p4289
tp4290
Rp4291
aa(lp4292
Vindividual
p4293
ag5
(g9
S'\xab\xfe}\xa7\x10\x81V?'
p4294
tp4295
Rp4296
aa(lp4297
Vhealth
p4298
ag5
(g9
S'w\x93\x17\x01\xa7\xefM?'
p4299
tp4300
Rp4301
aasS'HEMATOLOGY'
p4302
(lp4303
(lp4304
g441
ag5
(g9
S'\xb2@;\xef\xa3\xe8\xda?'
p4305
tp4306
Rp4307
aa(lp4308
g450
ag5
(g9
S'~_\xdb\xd5\x00\xee\xcb?'
p4309
tp4310
Rp4311
aa(lp4312
g331
ag5
(g9
S'~_\xdb\xd5\x00\xee\xcb?'
p4313
tp4314
Rp4315
aa(lp4316
g465
ag5
(g9
S'\xb3\xe6\xb5\xbeQ\x86\xc9?'
p4317
tp4318
Rp4319
aa(lp4320
g455
ag5
(g9
S']K\xb0\xdc\xfd6\xc8?'
p4321
tp4322
Rp4323
aa(lp4324
g460
ag5
(g9
S'\x99\xfa\xfc\xd9\x812\xbe?'
p4325
tp4326
Rp4327
aa(lp4328
Vmarrow
p4329
ag5
(g9
S'\x01k\xa3c\xd7\xbc\xb6?'
p4330
tp4331
Rp4332
aa(lp4333
g71
ag5
(g9
S'X\xd8\xcf\xf0t\xa3\xd0?'
p4334
tp4335
Rp4336
aa(lp4337
Vinfusion
p4338
ag5
(g9
S'P%\xbd^\xc4`\xce?'
p4339
tp4340
Rp4341
aa(lp4342
Vvein
p4343
ag5
(g9
S'\x1e\x7f\x05;\xfaZ\xc9?'
p4344
tp4345
Rp4346
aa(lp4347
g533
ag5
(g9
S'\xc8\x9b\x1bP\x01u\xc8?'
p4348
tp4349
Rp4350
aa(lp4351
Vhour
p4352
ag5
(g9
S'\x12{_\x94E=\xc2?'
p4353
tp4354
Rp4355
aa(lp4356
Vchemotherapy
p4357
ag5
(g9
S'a\xf3i*\x14\xe0\xc1?'
p4358
tp4359
Rp4360
aa(lp4361
g269
ag5
(g9
S'\xd3\x0f\x96\xd2\xb28\xc1?'
p4362
tp4363
Rp4364
aa(lp4365
g1016
ag5
(g9
S'\x0e\xe5\x14\x80{\xed\xbb?'
p4366
tp4367
Rp4368
aa(lp4369
Vprevention
p4370
ag5
(g9
S'\x84{\x06\xd3#6\xba?'
p4371
tp4372
Rp4373
aa(lp4374
g2453
ag5
(g9
S'\xf9\x93\x06\x88n2\xda?'
p4375
tp4376
Rp4377
aa(lp4378
g1679
ag5
(g9
S'\x86c:H\xb0\xa4\xd1?'
p4379
tp4380
Rp4381
aa(lp4382
g1689
ag5
(g9
S'\x0b`\x0f\xa1\xf9G\xd1?'
p4383
tp4384
Rp4385
aa(lp4386
g1684
ag5
(g9
S'\xe2\xf3\xd6`{*\xd1?'
p4387
tp4388
Rp4389
aa(lp4390
g390
ag5
(g9
S'\xb3\xea\xfc:%L\xcf?'
p4391
tp4392
Rp4393
aa(lp4394
g892
ag5
(g9
S'k\xcf2+\xa9\x94\xc6?'
p4395
tp4396
Rp4397
aa(lp4398
g1698
ag5
(g9
S'\x0b\x00$\x89\xde\xc1\xb8?'
p4399
tp4400
Rp4401
aasS'DIAGNOSTIC RADIOLOGY'
p4402
(lp4403
(lp4404
Vminimum
p4405
ag5
(g9
S'\xcb\xaff+\x8e\xb5\xc8?'
p4406
tp4407
Rp4408
aa(lp4409
g1715
ag5
(g9
S'\xc8{\xc1\xcd\xb1\xd6\xc1?'
p4410
tp4411
Rp4412
aa(lp4413
g1725
ag5
(g9
S'd7U\xccpe\xb7?'
p4414
tp4415
Rp4416
aa(lp4417
Vmammography
p4418
ag5
(g9
S'\x9e8i^\xf6k\xb4?'
p4419
tp4420
Rp4421
aa(lp4422
Vdirect
p4423
ag5
(g9
S'\x7f\x19\xc9[k\xcf\xb1?'
p4424
tp4425
Rp4426
aa(lp4427
Vproducing
p4428
ag5
(g9
S'\xb1\x89gz\xb6p\xb1?'
p4429
tp4430
Rp4431
aa(lp4432
g2310
ag5
(g9
S'];\xebk@W\xca?'
p4433
tp4434
Rp4435
aa(lp4436
g1928
ag5
(g9
S'\xc9q\x1ft\x92\xb8\xc2?'
p4437
tp4438
Rp4439
aa(lp4440
Vbrain
p4441
ag5
(g9
S'\xdf\xef\x13\x05\xd4\xf6\xb5?'
p4442
tp4443
Rp4444
aa(lp4445
Vhead
p4446
ag5
(g9
S'GQ\xc7\xa0~\xf0\xb5?'
p4447
tp4448
Rp4449
aa(lp4450
g2733
ag5
(g9
S'\xa9}B\xd6\xbf\x03\xdc?'
p4451
tp4452
Rp4453
aa(lp4454
g106
ag5
(g9
S"$70a\xbe'\xdb?"
p4455
tp4456
Rp4457
aa(lp4458
g2444
ag5
(g9
S'\x17\xe3\x01g8\xd0\xc6?'
p4459
tp4460
Rp4461
aa(lp4462
Vmri
p4463
ag5
(g9
S'\x034\xc7+\xac\x17\xc5?'
p4464
tp4465
Rp4466
aa(lp4467
Vchest
p4468
ag5
(g9
S':\xfbT\xc9\xff\xde\xc4?'
p4469
tp4470
Rp4471
aa(lp4472
g1409
ag5
(g9
S'l\x0e\xa8"\xd0\xc7\xba?'
p4473
tp4474
Rp4475
aa(lp4476
Vview
p4477
ag5
(g9
S'mf\x02\x8f\x01\x89\xb5?'
p4478
tp4479
Rp4480
aa(lp4481
Vcanal
p4482
ag5
(g9
S'\xf3u\xd3\x0e\xf3\xaf\xb1?'
p4483
tp4484
Rp4485
aa(lp4486
Vdigital
p4487
ag5
(g9
S'\xe8\x8f\xc2\x19\n0\xb1?'
p4488
tp4489
Rp4490
aa(lp4491
g2482
ag5
(g9
S'\x128o\xec\x00K\xdc?'
p4492
tp4493
Rp4494
aa(lp4495
g2756
ag5
(g9
S'\xc6\x13\xdb\xf4\xd9\x92\xd5?'
p4496
tp4497
Rp4498
aa(lp4499
Vcontrast
p4500
ag5
(g9
S'\x1e\xb8=\x1e\xb9\x9e\xbd?'
p4501
tp4502
Rp4503
aasS'PREVENTATIVE MEDICINE'
p4504
(lp4505
(lp4506
g441
ag5
(g9
S"\x96\xce'\x98\xec\x87\xd5?"
p4507
tp4508
Rp4509
aa(lp4510
g225
ag5
(g9
S'0\xd0 (w\xee\xd4?'
p4511
tp4512
Rp4513
aa(lp4514
g2387
ag5
(g9
S'5\xe8\x04\x15\x87\xe9\xcc?'
p4515
tp4516
Rp4517
aa(lp4518
g331
ag5
(g9
S',x\xd5\x9c\xcb\xa7\xc7?'
p4519
tp4520
Rp4521
aa(lp4522
g336
ag5
(g9
S'yh\x14\xeaT\xd7\xc6?'
p4523
tp4524
Rp4525
aa(lp4526
g341
ag5
(g9
S'\xe6\xd3u\x1aR\xb8\xc4?'
p4527
tp4528
Rp4529
aa(lp4530
Vlung
p4531
ag5
(g9
S'\xb9\xcc\xedX.6\xc1?'
p4532
tp4533
Rp4534
aa(lp4535
g450
ag5
(g9
S':\xa0\x1c\xd1d\x8a\xbf?'
p4536
tp4537
Rp4538
aa(lp4539
g346
ag5
(g9
S'\x85-\xa5\x19\xc4\x01\xbd?'
p4540
tp4541
Rp4542
aa(lp4543
g465
ag5
(g9
S'\x82%\x13o[\x90\xba?'
p4544
tp4545
Rp4546
aa(lp4547
Vgraphic
p4548
ag5
(g9
S'\x15\xb3d\x85E\xd1\xb9?'
p4549
tp4550
Rp4551
aa(lp4552
g460
ag5
(g9
S'z[?\x82`3\xb9?'
p4553
tp4554
Rp4555
aa(lp4556
V15
p4557
ag5
(g9
S'\x900\x92\xc8\xbdp\xe7?'
p4558
tp4559
Rp4560
aa(lp4561
g56
ag5
(g9
S'\xc6\xe4\x90\xf6\xbd\xff\xd0?'
p4562
tp4563
Rp4564
aa(lp4565
g390
ag5
(g9
S'\x05\x07\xf2\xb4\x9b\xfd\xd2?'
p4566
tp4567
Rp4568
aa(lp4569
g1679
ag5
(g9
S'\xad\xfded\xc2\xe7\xd2?'
p4570
tp4571
Rp4572
aa(lp4573
g1684
ag5
(g9
S'I\xe0\x9c\nj\x84\xd2?'
p4574
tp4575
Rp4576
aa(lp4577
g1689
ag5
(g9
S'I\xe0\x9c\nj\x84\xd2?'
p4578
tp4579
Rp4580
aa(lp4581
Vtest
p4582
ag5
(g9
S'\xbbjc\xa0=A\xca?'
p4583
tp4584
Rp4585
aa(lp4586
g602
ag5
(g9
S'\x9c\x9f\xa8c\xa7C\xbb?'
p4587
tp4588
Rp4589
aa(lp4590
Vroutine
p4591
ag5
(g9
S'\xd4\xa3\xc6C\xf3\xee\xba?'
p4592
tp4593
Rp4594
aa(lp4595
g4150
ag5
(g9
S'\xd4\xa3\xc6C\xf3\xee\xba?'
p4596
tp4597
Rp4598
aa(lp4599
g106
ag5
(g9
S'\xf2?\xda\xa5\xea\xac\xb9?'
p4600
tp4601
Rp4602
aa(lp4603
Vdrug
p4604
ag5
(g9
S'8\x160\xb3\x13\x15\xb9?'
p4605
tp4606
Rp4607
aa(lp4608
g284
ag5
(g9
S'\x9a\xe1en\xcd\xb0\xb7?'
p4609
tp4610
Rp4611
aa(lp4612
g2733
ag5
(g9
S'\x17-\xb3\xce.m\xb7?'
p4613
tp4614
Rp4615
aa(lp4616
g2444
ag5
(g9
S'\xc9\xf5\x9fR\xae*\xb7?'
p4617
tp4618
Rp4619
aa(lp4620
Vvirus
p4621
ag5
(g9
S'\xd9\xd8\xf0\xf6\xda\x87\xe2?'
p4622
tp4623
Rp4624
aa(lp4625
Vvaccine
p4626
ag5
(g9
S'G\x04\xa7=Z\x06\xd9?'
p4627
tp4628
Rp4629
aa(lp4630
Vinfluenza
p4631
ag5
(g9
S'\xcb\xcb\xeb\xf3#\xb5\xd8?'
p4632
tp4633
Rp4634
aa(lp4635
Vfluzone
p4636
ag5
(g9
S'\xe9\x8c\xf3H\x16\xfe\xcd?'
p4637
tp4638
Rp4639
aa(lp4640
Vsplit
p4641
ag5
(g9
S'e\x95W\x00\x07\xbb\xca?'
p4642
tp4643
Rp4644
aa(lp4645
Vindividuals
p4646
ag5
(g9
S'e\x95W\x00\x07\xbb\xca?'
p4647
tp4648
Rp4649
aa(lp4650
Vintramuscular
p4651
ag5
(g9
S'\xadp\xc5cD_\xca?'
p4652
tp4653
Rp4654
aa(lp4655
Vadministered
p4656
ag5
(g9
S'+\xb3\xa0\x8a\xd4\x05\xca?'
p4657
tp4658
Rp4659
aa(lp4660
Vage
p4661
ag5
(g9
S'&{=\xa5\xb8#\xc6?'
p4662
tp4663
Rp4664
aa(lp4665
g3771
ag5
(g9
S'&{=\xa5\xb8#\xc6?'
p4666
tp4667
Rp4668
aa(lp4669
g3188
ag5
(g9
S'\x8dE%x\xde\xa8\xc4?'
p4670
tp4671
Rp4672
aa(lp4673
Vuse
p4674
ag5
(g9
S'\xbc\xe0\x9a(\x7fm\xc4?'
p4675
tp4676
Rp4677
aa(lp4678
g3193
ag5
(g9
S'\xbc\xe0\x9a(\x7fm\xc4?'
p4679
tp4680
Rp4681
aasS'MASS IMMUNIZATION ROSTER BILLER'
p4682
(lp4683
(lp4684
g1021
ag5
(g9
S'3\xb3\x04\x8d\x1a\xd4\xcb?'
p4685
tp4686
Rp4687
aa(lp4688
Vyears
p4689
ag5
(g9
S'\xff\xed\x9e\xcc\xab\xd4\xca?'
p4690
tp4691
Rp4692
aa(lp4693
Volder
p4694
ag5
(g9
S'\x1bO}\xf8\xa5\x89\xca?'
p4695
tp4696
Rp4697
aa(lp4698
Vsplit
p4699
ag5
(g9
S'}\x04_V\xc8\x85\xc7?'
p4700
tp4701
Rp4702
aa(lp4703
Vintramuscular
p4704
ag5
(g9
S'}\x04_V\xc8\x85\xc7?'
p4705
tp4706
Rp4707
aa(lp4708
Vindividuals
p4709
ag5
(g9
S'}\x04_V\xc8\x85\xc7?'
p4710
tp4711
Rp4712
aa(lp4713
Vadministered
p4714
ag5
(g9
S'\x14\x97\\y\x19\xa0\xc6?'
p4715
tp4716
Rp4717
aa(lp4718
g2260
ag5
(g9
S'\xa9\x9e\x143\x1d\xe3\xc1?'
p4719
tp4720
Rp4721
aa(lp4722
Vpneumococcal
p4723
ag5
(g9
S'\xbf\xb9\xfa\x07z\xf6\xca?'
p4724
tp4725
Rp4726
aa(lp4727
Vfluvirin
p4728
ag5
(g9
S'r \xbdkV\xc4\xc7?'
p4729
tp4730
Rp4731
aa(lp4732
Vmuscle
p4733
ag5
(g9
S'\xd7\x02\x16\x9f\x18\x11\xc0?'
p4734
tp4735
Rp4736
aa(lp4737
Vpolysaccharide
p4738
ag5
(g9
S'\x91*!\x11\x83o\xbb?'
p4739
tp4740
Rp4741
aa(lp4742
g582
ag5
(g9
S'11``\x9b\xfc\xe0?'
p4743
tp4744
Rp4745
aa(lp4746
Vadministration
p4747
ag5
(g9
S'\xccxm\x15 2\xce?'
p4748
tp4749
Rp4750
aa(lp4751
g3535
ag5
(g9
S'\x118\x17V;2\xc3?'
p4752
tp4753
Rp4754
aa(lp4755
Vafluria
p4756
ag5
(g9
S'NA7;!\xaf\xb4?'
p4757
tp4758
Rp4759
aa(lp4760
g4626
ag5
(g9
S'zg\x00&Hr\xe1?'
p4761
tp4762
Rp4763
aa(lp4764
g4631
ag5
(g9
S'\xd3\xb7\x91\xe5\xa99\xe1?'
p4765
tp4766
Rp4767
aa(lp4768
g1806
ag5
(g9
S'\xcb\xb3=\x8a}\x16\xc5?'
p4769
tp4770
Rp4771
aa(lp4772
g4636
ag5
(g9
S'\xbf\x04\xc3\xe2O\xba\xc0?'
p4773
tp4774
Rp4775
aa(lp4776
g1458
ag5
(g9
S'K\xf7L\x98\x98\x8b\xb0?'
p4777
tp4778
Rp4779
aasS'CLINICAL LABORATORY'
p4780
(lp4781
(lp4782
g2387
ag5
(g9
S'\x9e\xe5VPM\x1e\xe4?'
p4783
tp4784
Rp4785
aa(lp4786
Vchemicals
p4787
ag5
(g9
S's<\xc9x\xdd!\xc2?'
p4788
tp4789
Rp4790
aa(lp4791
Vmicroalbumin
p4792
ag5
(g9
S'z\xf9^\xfe\xccQ\xc0?'
p4793
tp4794
Rp4795
aa(lp4796
g4208
ag5
(g9
S'\xf5\x85\xb4\x86\xf6\x9d\xbe?'
p4797
tp4798
Rp4799
aa(lp4800
Vlipids
p4801
ag5
(g9
S'\x9c%F\xcav\x94\xbc?'
p4802
tp4803
Rp4804
aa(lp4805
Vtriglycerides
p4806
ag5
(g9
S'\xc8\x85\x10\x08\x9b&\xbc?'
p4807
tp4808
Rp4809
aa(lp4810
Vstool
p4811
ag5
(g9
S'\xc8\x85\x10\x08\x9b&\xbc?'
p4812
tp4813
Rp4814
aa(lp4815
Vac
p4816
ag5
(g9
S'Ce9><\xbc\xbb?'
p4817
tp4818
Rp4819
aa(lp4820
Vtsh
p4821
ag5
(g9
S'\x0fU\x88\xa3\x1e\xf1\xba?'
p4822
tp4823
Rp4824
aa(lp4825
Vstimulating
p4826
ag5
(g9
S'\x0fU\x88\xa3\x1e\xf1\xba?'
p4827
tp4828
Rp4829
aa(lp4830
Vhemoglobin
p4831
ag5
(g9
S'\x0fU\x88\xa3\x1e\xf1\xba?'
p4832
tp4833
Rp4834
aa(lp4835
Vmeasurement
p4836
ag5
(g9
S'\xb7\xa62\xa2c\x98\xc1?'
p4837
tp4838
Rp4839
aa(lp4840
Vvitamin
p4841
ag5
(g9
S'\x9e\xa2\x15\xc5\xaf\x9c\xbc?'
p4842
tp4843
Rp4844
aa(lp4845
Vprotein
p4846
ag5
(g9
S'\x9e\xa2\x15\xc5\xaf\x9c\xbc?'
p4847
tp4848
Rp4849
aa(lp4850
Vpsa
p4851
ag5
(g9
S'\xc3\xff\x03\x9b\x89\xdf\xb8?'
p4852
tp4853
Rp4854
aa(lp4855
Vspecific
p4856
ag5
(g9
S'1\xfc\x15\xe9pt\xb8?'
p4857
tp4858
Rp4859
aa(lp4860
g4582
ag5
(g9
S'\x12/\x9d\xdf\xdc\x7f\xd9?'
p4861
tp4862
Rp4863
aa(lp4864
Vlevel
p4865
ag5
(g9
S'j\xa7\xe9?\x84v\xd3?'
p4866
tp4867
Rp4868
aa(lp4869
Vhormone
p4870
ag5
(g9
S'Xs\x06>j>\xc1?'
p4871
tp4872
Rp4873
aa(lp4874
Vcholesterol
p4875
ag5
(g9
S'\r\x9dm\x80\xf6\x8e\xbf?'
p4876
tp4877
Rp4878
aa(lp4879
Vwhite
p4880
ag5
(g9
S'\x92?\x06\xc8\xd0\x9a\xb6?'
p4881
tp4882
Rp4883
aa(lp4884
g1130
ag5
(g9
S'\x82\xbb\xdc(k\xcc\xb5?'
p4885
tp4886
Rp4887
aa(lp4888
Vcell
p4889
ag5
(g9
S'9d\x1c&\x99\xee\xcd?'
p4890
tp4891
Rp4892
aa(lp4893
Vbound
p4894
ag5
(g9
S'|Z\x02\xecV\xcc\xcd?'
p4895
tp4896
Rp4897
aa(lp4898
Vurine
p4899
ag5
(g9
S'\xcf\x17,Q\n\x92\xcd?'
p4900
tp4901
Rp4902
aa(lp4903
Vthyroid
p4904
ag5
(g9
S'\xa8\xce1d\xb5\xbb\xcc?'
p4905
tp4906
Rp4907
aa(lp4908
Vcount
p4909
ag5
(g9
S'\x7f\xc4\x1b\x04hg\xc2?'
p4910
tp4911
Rp4912
aa(lp4913
Vred
p4914
ag5
(g9
S'\xf0\x8b\xa3\xc7]\xbe\xc1?'
p4915
tp4916
Rp4917
aa(lp4918
Vtravelled
p4919
ag5
(g9
S'\x05\xf4\xee\xdda]\xc1?'
p4920
tp4921
Rp4922
aa(lp4923
Vmiles
p4924
ag5
(g9
S'\x05\xf4\xee\xdda]\xc1?'
p4925
tp4926
Rp4927
aa(lp4928
Vactually
p4929
ag5
(g9
S'\x05\xf4\xee\xdda]\xc1?'
p4930
tp4931
Rp4932
aa(lp4933
Vbacterial
p4934
ag5
(g9
S',@\xf3T\xab\xc2\xc0?'
p4935
tp4936
Rp4937
aa(lp4938
Vcollection
p4939
ag5
(g9
S'\xe6\xd1\xf1\x90a\xf4\xbf?'
p4940
tp4941
Rp4942
aa(lp4943
Vthyroxine
p4944
ag5
(g9
S'\xfb(gQ7\xed\xbe?'
p4945
tp4946
Rp4947
aa(lp4948
Vway
p4949
ag5
(g9
S'|Z\x02\xecV\xcc\xbd?'
p4950
tp4951
Rp4952
aa(lp4953
Vtravel
p4954
ag5
(g9
S'|Z\x02\xecV\xcc\xbd?'
p4955
tp4956
Rp4957
aa(lp4958
Vprorated
p4959
ag5
(g9
S'|Z\x02\xecV\xcc\xbd?'
p4960
tp4961
Rp4962
aa(lp4963
Vmedically
p4964
ag5
(g9
S'|Z\x02\xecV\xcc\xbd?'
p4965
tp4966
Rp4967
aa(lp4968
Vdrawn
p4969
ag5
(g9
S'|Z\x02\xecV\xcc\xbd?'
p4970
tp4971
Rp4972
aasS'ALLERGY/IMMUNOLOGY'
p4973
(lp4974
(lp4975
Vallergen
p4976
ag5
(g9
S'1pC\xa90u\xd4?'
p4977
tp4978
Rp4979
aa(lp4980
Vincremental
p4981
ag5
(g9
S'\xe1\xff\x9c\xda\x9f\x13\xc8?'
p4982
tp4983
Rp4984
aa(lp4985
Vdosages
p4986
ag5
(g9
S'\xe1\xff\x9c\xda\x9f\x13\xc8?'
p4987
tp4988
Rp4989
aa(lp4990
Vimmunotherapy
p4991
ag5
(g9
S'\x89!\xac\xaa\xdb\xa8\xc1?'
p4992
tp4993
Rp4994
aa(lp4995
Vantigens
p4996
ag5
(g9
S'\xd1A\xa1e\xc2\x7f\xc1?'
p4997
tp4998
Rp4999
aa(lp5000
Vprovision
p5001
ag5
(g9
S'D\x9f\xb5\xe2}M\xc1?'
p5002
tp5003
Rp5004
aa(lp5005
Vinjections
p5006
ag5
(g9
S'\xf33\xf5\xcc\xed\x86\xc0?'
p5007
tp5008
Rp5009
aa(lp5010
g46
ag5
(g9
S'\xb0\r\xbf\x1edQ\xd0?'
p5011
tp5012
Rp5013
aa(lp5014
g26
ag5
(g9
S'\xecb\xde\x0b\xc8J\xd0?'
p5015
tp5016
Rp5017
aa(lp5018
g31
ag5
(g9
S'GN\xcf\x12\xc4&\xd0?'
p5019
tp5020
Rp5021
aa(lp5022
g51
ag5
(g9
S'GN\xcf\x12\xc4&\xd0?'
p5023
tp5024
Rp5025
aa(lp5026
g41
ag5
(g9
S'\x10\xa0\x7fZ\xbb\xa4\xcd?'
p5027
tp5028
Rp5029
aa(lp5030
g36
ag5
(g9
S'\xd5!\xb1\xe2\xe0P\xcd?'
p5031
tp5032
Rp5033
aa(lp5034
g56
ag5
(g9
S'\xdd\xee\xa2\xab\xa8\xd9\xc3?'
p5035
tp5036
Rp5037
aa(lp5038
Vimmediate
p5039
ag5
(g9
S'\x96\x9e\xa6\xe8X\x9a\xce?'
p5040
tp5041
Rp5042
aa(lp5043
Vreaction
p5044
ag5
(g9
S'\x00\x1e\xcf\x10R\xc1\xcd?'
p5045
tp5046
Rp5047
aa(lp5048
Vextracts
p5049
ag5
(g9
S'N\xb6%\xbe\xfcv\xcd?'
p5050
tp5051
Rp5052
aa(lp5053
Vallergenic
p5054
ag5
(g9
S'\x90\xa3(\x02\xc9[\xcd?'
p5055
tp5056
Rp5057
aa(lp5058
g279
ag5
(g9
S'\x0f\x9e\xf9;Ny\xcc?'
p5059
tp5060
Rp5061
aa(lp5062
g91
ag5
(g9
S'[\xba\x1ei[&\xc2?'
p5063
tp5064
Rp5065
aa(lp5066
Vgraphic
p5067
ag5
(g9
S'\xc39@\x14\x0c\xb1\xc2?'
p5068
tp5069
Rp5070
aa(lp5071
Vair
p5072
ag5
(g9
S'\x07rl2f\xb8\xc1?'
p5073
tp5074
Rp5075
aa(lp5076
Vanalysis
p5077
ag5
(g9
S'\x85A\xc3\xf63\xbd\xbf?'
p5078
tp5079
Rp5080
aasS'MEDICAL ONCOLOGY'
p5081
(lp5082
(lp5083
g225
ag5
(g9
S"'\xdb\xff\xf7\xbe\x15\xd5?"
p5084
tp5085
Rp5086
aa(lp5087
g450
ag5
(g9
S'JR\r\xe4Zh\xc3?'
p5088
tp5089
Rp5090
aa(lp5091
g331
ag5
(g9
S'\x12\\ \t\xa3O\xc3?'
p5092
tp5093
Rp5094
aa(lp5095
g465
ag5
(g9
S'\x1a\x9959:R\xc1?'
p5096
tp5097
Rp5098
aa(lp5099
g455
ag5
(g9
S'#]5\x96\xde\xfc\xc0?'
p5100
tp5101
Rp5102
aa(lp5103
g26
ag5
(g9
S'\x8a\xc2\xbf+lr\xd5?'
p5104
tp5105
Rp5106
aa(lp5107
g46
ag5
(g9
S'\x8d \x8ba\x07\xd4\xcd?'
p5108
tp5109
Rp5110
aa(lp5111
g51
ag5
(g9
S'\xc7\x9c\xcb\xca\x1c\x86\xcd?'
p5112
tp5113
Rp5114
aa(lp5115
g31
ag5
(g9
S'\x81\xe1\x08WMy\xcd?'
p5116
tp5117
Rp5118
aa(lp5119
g41
ag5
(g9
S'ed\xbb6\xe9]\xca?'
p5120
tp5121
Rp5122
aa(lp5123
g56
ag5
(g9
S'\xc5Rp\x1c\x1c\xd1\xc4?'
p5124
tp5125
Rp5126
aa(lp5127
g1016
ag5
(g9
S'1\x1cz\x06\xef\xbc\xbe?'
p5128
tp5129
Rp5130
aa(lp5131
g4370
ag5
(g9
S'\xf3\xe7\x10\x8e4w\xba?'
p5132
tp5133
Rp5134
aa(lp5135
g2535
ag5
(g9
S';\x93\xf1\xac\x90\xbd\xc4?'
p5136
tp5137
Rp5138
aa(lp5139
g1806
ag5
(g9
S'\xab\x13S\x01\xc3\xa9\xd5?'
p5140
tp5141
Rp5142
aa(lp5143
g2011
ag5
(g9
S'\xd0*o<\x96<\xd2?'
p5144
tp5145
Rp5146
aa(lp5147
Vmg
p5148
ag5
(g9
S'\xfd\xde#n\xfb\x12\xd0?'
p5149
tp5150
Rp5151
aa(lp5152
g2016
ag5
(g9
S'"J\x82GZ\xbd\xcd?'
p5153
tp5154
Rp5155
aa(lp5156
Vchemotherapy
p5157
ag5
(g9
S'k\xba\x8eY?L\xc6?'
p5158
tp5159
Rp5160
aa(lp5161
g2006
ag5
(g9
S'\x1d\xca"Z\xc96\xc6?'
p5162
tp5163
Rp5164
aasS'OPTOMETRY'
p5165
(lp5166
(lp5167
Vretina
p5168
ag5
(g9
S'\xdc0#U\x1a\x82\xca?'
p5169
tp5170
Rp5171
aa(lp5172
g699
ag5
(g9
S'\xa6S&O\x0e\xca\xc2?'
p5173
tp5174
Rp5175
aa(lp5176
Vvision
p5177
ag5
(g9
S'\xce\x9b#\xd1\xab|\xc2?'
p5178
tp5179
Rp5180
aa(lp5181
Vdaylight
p5182
ag5
(g9
S'\xb3T\x91\xe4\x8eU\xc2?'
p5183
tp5184
Rp5185
aa(lp5186
Vconditions
p5187
ag5
(g9
S'\xb3T\x91\xe4\x8eU\xc2?'
p5188
tp5189
Rp5190
aa(lp5191
g225
ag5
(g9
S's`\xee\xacK\xd2\xc0?'
p5192
tp5193
Rp5194
aa(lp5195
Vfield
p5196
ag5
(g9
S'V\xc9\x08\xfb-\xab\xc0?'
p5197
tp5198
Rp5199
aa(lp5200
Veye
p5201
ag5
(g9
S'uL\xcd\x13\x0e\x9d\xdb?'
p5202
tp5203
Rp5204
aa(lp5205
Vmedical
p5206
ag5
(g9
S'\x7fB]\xc8&T\xd6?'
p5207
tp5208
Rp5209
aa(lp5210
g41
ag5
(g9
S'i\x90\xa9q\xc9\xa6\xd2?'
p5211
tp5212
Rp5213
aa(lp5214
Vdiagnosis
p5215
ag5
(g9
S'H\x11\xf8)#\xdf\xcd?'
p5216
tp5217
Rp5218
aa(lp5219
g56
ag5
(g9
S'\x92\xf2"\xa6&\x7f\xcd?'
p5220
tp5221
Rp5222
aa(lp5223
g26
ag5
(g9
S's\xc7\x8a\x88Z}\xc2?'
p5224
tp5225
Rp5226
aa(lp5227
g51
ag5
(g9
S'\xadW\xfc%\x15-\xc2?'
p5228
tp5229
Rp5230
aa(lp5231
g3107
ag5
(g9
S'\xf6\xea\xc2\xd7\xf0\x0f\xce?'
p5232
tp5233
Rp5234
aa(lp5235
g1679
ag5
(g9
S'>-d\xb2\x89k\xc2?'
p5236
tp5237
Rp5238
aa(lp5239
Voptic
p5240
ag5
(g9
S't\xb2z\x97u\xc9\xbc?'
p5241
tp5242
Rp5243
aa(lp5244
g3563
ag5
(g9
S'\x91\xbd1\xe3\xf2B\xd8?'
p5245
tp5246
Rp5247
aa(lp5248
g1291
ag5
(g9
S'\xb7\x04\xe5\xba\xf6-\xcf?'
p5249
tp5250
Rp5251
aa(lp5252
Vphotography
p5253
ag5
(g9
S'\xab\xda\xd6\xa7\x04\x9e\xc2?'
p5254
tp5255
Rp5256
aasS'LICENSED CLINICAL SOCIAL WORKER'
p5257
(lp5258
(lp5259
g225
ag5
(g9
S'\xad!\n5\xaf1\xcc?'
p5260
tp5261
Rp5262
aa(lp5263
g718
ag5
(g9
S'\x8c\x18_\x1cp\xa7\xcb?'
p5264
tp5265
Rp5266
aa(lp5267
g2090
ag5
(g9
S'KJ~\xb1\x9b\xcc\xc6?'
p5268
tp5269
Rp5270
aa(lp5271
g123
ag5
(g9
S'V\x885\xb2\x12\xbd\xb8?'
p5272
tp5273
Rp5274
aa(lp5275
Vinteractive
p5276
ag5
(g9
S'\xea\x807\x12F\xdb|?'
p5277
tp5278
Rp5279
aa(lp5280
Vcomplexity
p5281
ag5
(g9
S'\xc4+\xad\x04\xbbsp?'
p5282
tp5283
Rp5284
aa(lp5285
g699
ag5
(g9
S'\x8d\\AbA_e?'
p5286
tp5287
Rp5288
aa(lp5289
g480
ag5
(g9
S'#g[2\xabCe?'
p5290
tp5291
Rp5292
aa(lp5293
g485
ag5
(g9
S'#g[2\xabCe?'
p5294
tp5295
Rp5296
aa(lp5297
g441
ag5
(g9
S'[\xab\xff\x9c}\xb7d?'
p5298
tp5299
Rp5300
aa(lp5301
g331
ag5
(g9
S'\xec\x7f\x04&\xffA`?'
p5302
tp5303
Rp5304
aa(lp5305
Vpsychoanalysis
p5306
ag5
(g9
S'?#T\xd8\x1c\x93X?'
p5307
tp5308
Rp5309
aa(lp5310
g2967
ag5
(g9
S"\x84Uu'\xbf\x11\xd3?"
p5311
tp5312
Rp5313
aa(lp5314
g1244
ag5
(g9
S"'(\x81\x8d\x18:\xba?"
p5315
tp5316
Rp5317
aa(lp5318
Vgroup
p5319
ag5
(g9
S'\x7fI(t\xe1Y\x9a?'
p5320
tp5321
Rp5322
aa(lp5323
Vcrisis
p5324
ag5
(g9
S'\xb3\xa6\x82\x80"I\x85?'
p5325
tp5326
Rp5327
aa(lp5328
Vadditional
p5329
ag5
(g9
S'\xb0EUsU\x7fR?'
p5330
tp5331
Rp5332
aa(lp5333
g5206
ag5
(g9
S'\xf9(\x0cC\x81\xeeH?'
p5334
tp5335
Rp5336
aa(lp5337
g3513
ag5
(g9
S'U-\xb8\xebK\xad@?'
p5338
tp5339
Rp5340
aa(lp5341
g2981
ag5
(g9
S"\xa6v'v\x018\xe0?"
p5342
tp5343
Rp5344
aa(lp5345
g2986
ag5
(g9
S'\xb8D\x1f\x94=\x07\xe0?'
p5346
tp5347
Rp5348
aa(lp5349
g2991
ag5
(g9
S'B\t\xbc[$\xfad?'
p5350
tp5351
Rp5352
aa(lp5353
Vliving
p5354
ag5
(g9
S'q\x82\x06\xbbO(X?'
p5355
tp5356
Rp5357
aa(lp5358
Vassisted
p5359
ag5
(g9
S'q\x82\x06\xbbO(X?'
p5360
tp5361
Rp5362
aa(lp5363
g1438
ag5
(g9
S'\x84\xb9\xce:\xe3\x88R?'
p5364
tp5365
Rp5366
aa(lp5367
Voriginating
p5368
ag5
(g9
S',P\x96\xf2B\x7fR?'
p5369
tp5370
Rp5371
aa(lp5372
Vtelehealth
p5373
ag5
(g9
S'(\x1e\x9d\x08)\xe0Q?'
p5374
tp5375
Rp5376
aa(lp5377
g2141
ag5
(g9
S'\xdb\xce\r\xf8\xdcj\xe1?'
p5378
tp5379
Rp5380
aa(lp5381
g218
ag5
(g9
S'\xf6\xb0\xb9\x96\x839u?'
p5382
tp5383
Rp5384
aasS'HOSPICE/PALLIATIVE CARE'
p5385
(lp5386
(lp5387
g465
ag5
(g9
S'\xfc\x1aN\x18\xc5\xab\xda?'
p5388
tp5389
Rp5390
aa(lp5391
g450
ag5
(g9
S'\xe1\xcf\x91\x05\xc9c\xda?'
p5392
tp5393
Rp5394
aa(lp5395
g455
ag5
(g9
S'YP\xbf\tbM\xd9?'
p5396
tp5397
Rp5398
aa(lp5399
Vinjured
p5400
ag5
(g9
S'\xdc\xb5\xf0\xf6Uw\xba?'
p5401
tp5402
Rp5403
aa(lp5404
Vill
p5405
ag5
(g9
S'\xdc\xb5\xf0\xf6Uw\xba?'
p5406
tp5407
Rp5408
aa(lp5409
Vcritically
p5410
ag5
(g9
S'\xdc\xb5\xf0\xf6Uw\xba?'
p5411
tp5412
Rp5413
aa(lp5414
Vcritical
p5415
ag5
(g9
S'\xdc\xb5\xf0\xf6Uw\xba?'
p5416
tp5417
Rp5418
aa(lp5419
Vprolonged
p5420
ag5
(g9
S'\xcf\xccZ8\xf6\x1c\xba?'
p5421
tp5422
Rp5423
aa(lp5424
Vdelivery
p5425
ag5
(g9
S'\x0e\x83\x7f\xa2\x9d\xde\xb7?'
p5426
tp5427
Rp5428
aa(lp5429
Vobservation
p5430
ag5
(g9
S't\x8cG\xe7\x9dw\xb6?'
p5431
tp5432
Rp5433
aa(lp5434
Vservice
p5435
ag5
(g9
S'$c\xffz82\xb5?'
p5436
tp5437
Rp5438
aa(lp5439
Vhour
p5440
ag5
(g9
S'%\x8e/{!\xb8\xb4?'
p5441
tp5442
Rp5443
aa(lp5444
Vadditional
p5445
ag5
(g9
S'Qq--\x8c\x96\x9c?'
p5446
tp5447
Rp5448
aa(lp5449
g1358
ag5
(g9
S'u\x0f\x8f \x0e\xc1\xd4?'
p5450
tp5451
Rp5452
aa(lp5453
g1363
ag5
(g9
S'w\x11\xeeW\x1c~\xd4?'
p5454
tp5455
Rp5456
aa(lp5457
g31
ag5
(g9
S'cp\xe5\x9d\xe59\xd3?'
p5458
tp5459
Rp5460
aa(lp5461
Vwindpipe
p5462
ag5
(g9
S'\xfc\xd46A\x193\xc7?'
p5463
tp5464
Rp5465
aa(lp5466
Vliving
p5467
ag5
(g9
S'\xf4\x83\xc8\xdf\xff\xf4\xc5?'
p5468
tp5469
Rp5470
aa(lp5471
Vassisted
p5472
ag5
(g9
S'\xf4\x83\xc8\xdf\xff\xf4\xc5?'
p5473
tp5474
Rp5475
aa(lp5476
Vostomy
p5477
ag5
(g9
S'jn\x01\xd7\xb4\\\xbd?'
p5478
tp5479
Rp5480
aa(lp5481
Vdischarge
p5482
ag5
(g9
S'\xfd\xae\xdb\x8dL\xdd\xba?'
p5483
tp5484
Rp5485
aa(lp5486
Vendoscopic
p5487
ag5
(g9
S'Y\n\x83r\xdd\xc1\xb9?'
p5488
tp5489
Rp5490
aa(lp5491
Vairway
p5492
ag5
(g9
S'\xf4\x83\xc8\xdf\xff\xf4\xb5?'
p5493
tp5494
Rp5495
aa(lp5496
Vpermanent
p5497
ag5
(g9
S'l\xda\xb6\xee87\xb5?'
p5498
tp5499
Rp5500
aa(lp5501
g877
ag5
(g9
S'\xd1\xfa\xdb\x13\xd5\x88\xd9?'
p5502
tp5503
Rp5504
aa(lp5505
V50
p5506
ag5
(g9
S'F\x94\x93\x87\xe6a\xce?'
p5507
tp5508
Rp5509
aa(lp5510
g882
ag5
(g9
S'N\xdbdy\n^\xcd?'
p5511
tp5512
Rp5513
aa(lp5514
g208
ag5
(g9
S'\x11\xca\xc3#0\xfd\xdb?'
p5515
tp5516
Rp5517
aa(lp5518
g213
ag5
(g9
S'&\x80`\xaf2\xf6\xd8?'
p5519
tp5520
Rp5521
aa(lp5522
V70
p5523
ag5
(g9
S'\xe3\x1b\x83\xf7\x81\xfc\xc9?'
p5524
tp5525
Rp5526
aa(lp5527
g931
ag5
(g9
S',\xdd\xe9\x9e\xef\xd9\xc6?'
p5528
tp5529
Rp5530
aa(lp5531
g2235
ag5
(g9
S'\x11\xca\xc3#0\xfd\xbb?'
p5532
tp5533
Rp5534
aa(lp5535
g2244
ag5
(g9
S'\x11\xca\xc3#0\xfd\xbb?'
p5536
tp5537
Rp5538
aa(lp5539
g2923
ag5
(g9
S'\x82\xdc\t\xb2\x8eh\xbb?'
p5540
tp5541
Rp5542
aa(lp5543
g1458
ag5
(g9
S'&\x80`\xaf2\xf6\xb8?'
p5544
tp5545
Rp5546
aasS'RADIATION ONCOLOGY'
p5547
(lp5548
(lp5549
Vtherapy
p5550
ag5
(g9
S'\xe5\x1d\xbb13r\xd3?'
p5551
tp5552
Rp5553
aa(lp5554
Vsimulation
p5555
ag5
(g9
S'\xc3\x92\xbc\\\x12\t\xc9?'
p5556
tp5557
Rp5558
aa(lp5559
Vdesign
p5560
ag5
(g9
S'V\x81\x1f5\x01[\xc8?'
p5561
tp5562
Rp5563
aa(lp5564
Vconstruction
p5565
ag5
(g9
S'V\x81\x1f5\x01[\xc8?'
p5566
tp5567
Rp5568
aa(lp5569
Vcalculation
p5570
ag5
(g9
S'EE\xac*\xca\xe0\xbc?'
p5571
tp5572
Rp5573
aa(lp5574
Vmodulation
p5575
ag5
(g9
S'v\x9d|\xef\xca\r\xb3?'
p5576
tp5577
Rp5578
aa(lp5579
Vcomplex
p5580
ag5
(g9
S'\x99G\x08\xb3\x9cI\xc8?'
p5581
tp5582
Rp5583
aa(lp5584
Vdevices
p5585
ag5
(g9
S'\xef\xea\n\xcb\x07D\xc0?'
p5586
tp5587
Rp5588
aa(lp5589
Vtreatments
p5590
ag5
(g9
S'@\xd4\xb1q\x9e7\xbc?'
p5591
tp5592
Rp5593
aa(lp5594
g26
ag5
(g9
S'\xb9b\xd8:C0\xbb?'
p5595
tp5596
Rp5597
aa(lp5598
g46
ag5
(g9
S'\xdbm\xeb\x96YA\xba?'
p5599
tp5600
Rp5601
aa(lp5602
g31
ag5
(g9
S'\xaf\x1a\x9fK\xc4\xfc\xb9?'
p5603
tp5604
Rp5605
aa(lp5606
g51
ag5
(g9
S'\xaf\x1a\x9fK\xc4\xfc\xb9?'
p5607
tp5608
Rp5609
aa(lp5610
g36
ag5
(g9
S'\x951\x0c\xba\xe3\x8d\xb8?'
p5611
tp5612
Rp5613
aa(lp5614
g41
ag5
(g9
S'\xa4\xa1\xa4\xe6h-\xb7?'
p5615
tp5616
Rp5617
aa(lp5618
Vsimple
p5619
ag5
(g9
S'\xd0\xd5b2\x84;\xb6?'
p5620
tp5621
Rp5622
aa(lp5623
Vfields
p5624
ag5
(g9
S'\x82e\xf4O\x9e\x98\xb1?'
p5625
tp5626
Rp5627
aa(lp5628
g3107
ag5
(g9
S'\xe3\x82\xa4\xcb\\\xf6\xc7?'
p5629
tp5630
Rp5631
aa(lp5632
Vplanning
p5633
ag5
(g9
S'4\xaeWJ\x9a\xff\xb5?'
p5634
tp5635
Rp5636
aa(lp5637
g622
ag5
(g9
S'\x045\x07S\xa8\xfe\xe7?'
p5638
tp5639
Rp5640
aa(lp5641
g637
ag5
(g9
S'%\xe0\xd3\xac\xb9h\xc9?'
p5642
tp5643
Rp5644
aasS'OPHTHALMOLOGY'
p5645
(lp5646
(lp5647
g5168
ag5
(g9
S'\xa4\xe0\xf2A\x97\xad\xca?'
p5648
tp5649
Rp5650
aa(lp5651
Vcorneal
p5652
ag5
(g9
S'H\xdf\x88\xf5\xfc\x90\xc2?'
p5653
tp5654
Rp5655
aa(lp5656
g341
ag5
(g9
S'B\x87\xe1\xb2\x89\x13\xbc?'
p5657
tp5658
Rp5659
aa(lp5660
Vlens
p5661
ag5
(g9
S'\xecB[\xd4h\x0b\xd2?'
p5662
tp5663
Rp5664
aa(lp5665
g5206
ag5
(g9
S's*\xdf\xc8\x03\xa7\xcf?'
p5666
tp5667
Rp5668
aa(lp5669
g41
ag5
(g9
S'W\xe5\xb9\x94\x05\xdc\xcb?'
p5670
tp5671
Rp5672
aa(lp5673
g56
ag5
(g9
S'\xdaE;m\xdb\x8a\xc4?'
p5674
tp5675
Rp5676
aa(lp5677
g31
ag5
(g9
S'\xba|>\x86\x911\xbd?'
p5678
tp5679
Rp5680
aa(lp5681
g26
ag5
(g9
S'Y\x16\xf4\xa6\x9f&\xbd?'
p5682
tp5683
Rp5684
aa(lp5685
g46
ag5
(g9
S'\xd6\x96\xcc|\xa5\x15\xbd?'
p5686
tp5687
Rp5688
aa(lp5689
g3107
ag5
(g9
S'\xb9\xe6\x1b\xc5D`\xc6?'
p5690
tp5691
Rp5692
aa(lp5693
g3112
ag5
(g9
S'\xb9\xa8k9\x8a\x97\xc5?'
p5694
tp5695
Rp5696
aa(lp5697
g3127
ag5
(g9
S'\xb7\xebX\xb2>0\xc1?'
p5698
tp5699
Rp5700
aa(lp5701
g3132
ag5
(g9
S'u\xcb4\x1d:!\xc1?'
p5702
tp5703
Rp5704
aa(lp5705
g3137
ag5
(g9
S'u\xcb4\x1d:!\xc1?'
p5706
tp5707
Rp5708
aa(lp5709
g3152
ag5
(g9
S'\xc0\xdd\xb7p\xb7%\xbf?'
p5710
tp5711
Rp5712
aa(lp5713
g76
ag5
(g9
S'C\x9cz\xa3\xd1c\xbd?'
p5714
tp5715
Rp5716
aa(lp5717
Vlaser
p5718
ag5
(g9
S'\xe9\xbb\xa4\x15\x1b\x86\xbb?'
p5719
tp5720
Rp5721
aa(lp5722
Vretinal
p5723
ag5
(g9
S'o=c\x04\xfah\xbb?'
p5724
tp5725
Rp5726
aa(lp5727
Veye
p5728
ag5
(g9
S'\x7fA(\xf4\x07T\xdf?'
p5729
tp5730
Rp5731
aa(lp5732
Vcataract
p5733
ag5
(g9
S'\xab\xcaU\x1b9\x9a\xcf?'
p5734
tp5735
Rp5736
aa(lp5737
g1291
ag5
(g9
S'#\x84\x02\xe1#\x9a\xcc?'
p5738
tp5739
Rp5740
aa(lp5741
g3563
ag5
(g9
S'\x7f\xb7>\xba\xed\x1d\xcc?'
p5742
tp5743
Rp5744
aa(lp5745
Vophthalmoscope
p5746
ag5
(g9
S'\xc2\xca\xa1\xdd\xa2\x15\xbd?'
p5747
tp5748
Rp5749
aa(lp5750
Voptic
p5751
ag5
(g9
S'\x1e\x8a\xe9\xdeA\xe7\xba?'
p5752
tp5753
Rp5754
aasS'THORACIC SURGERY'
p5755
(lp5756
(lp5757
g441
ag5
(g9
S'm\xd5\xba\xfd\xb6\t\xd7?'
p5758
tp5759
Rp5760
aa(lp5761
g225
ag5
(g9
S'Qz\x08\x0c\xa5z\xd5?'
p5762
tp5763
Rp5764
aa(lp5765
g704
ag5
(g9
S'AX\xbe\x84\x8e\xe8\xce?'
p5766
tp5767
Rp5768
aa(lp5769
g709
ag5
(g9
S'\x08\x08\x03|\xac\x96\xce?'
p5770
tp5771
Rp5772
aa(lp5773
g718
ag5
(g9
S'j-\xd4\xd4\xb0\x96\xcd?'
p5774
tp5775
Rp5776
aa(lp5777
g4531
ag5
(g9
S'\x04\xd1\xd2\x91\x0c\xa3\xc5?'
p5778
tp5779
Rp5780
aa(lp5781
g1191
ag5
(g9
S'\xf8n\x0esja\xc2?'
p5782
tp5783
Rp5784
aa(lp5785
g723
ag5
(g9
S',f\xcc\x8e\xccq\xc1?'
p5786
tp5787
Rp5788
aa(lp5789
g346
ag5
(g9
S'U\xc3\xa0\x1d\x1a+\xc0?'
p5790
tp5791
Rp5792
aa(lp5793
g1614
ag5
(g9
S'\x9dz\xa7\x87t_\xba?'
p5794
tp5795
Rp5796
aa(lp5797
g2402
ag5
(g9
S'\xf8p\x1d\x1b\xdf#\xdf?'
p5798
tp5799
Rp5800
aa(lp5801
g148
ag5
(g9
S'/\xf3\xee\x17A\x8a\xcb?'
p5802
tp5803
Rp5804
aa(lp5805
Vbypass
p5806
ag5
(g9
S'\xc3\xd0\xa5\x15n\xf2\xca?'
p5807
tp5808
Rp5809
aa(lp5810
Vcombined
p5811
ag5
(g9
S'\x80\xe4\xf8\x01r\x81\xc1?'
p5812
tp5813
Rp5814
aa(lp5815
Vbypasses
p5816
ag5
(g9
S'\xe42\xf8\xda\xf71\xbf?'
p5817
tp5818
Rp5819
aa(lp5820
Vvalve
p5821
ag5
(g9
S'\x11N0\xb7\x13I\xbd?'
p5822
tp5823
Rp5824
aa(lp5825
g400
ag5
(g9
S'\xf5\xd8\x9e\xb3\x8c\x80\xc2?'
p5826
tp5827
Rp5828
aa(lp5829
g877
ag5
(g9
S'\xf2E.%9O\xc2?'
p5830
tp5831
Rp5832
aa(lp5833
g405
ag5
(g9
S'\xae\xec\xf9:!J\xc2?'
p5834
tp5835
Rp5836
aa(lp5837
g395
ag5
(g9
S'{\xff!\xbb\xa47\xc2?'
p5838
tp5839
Rp5840
aa(lp5841
g2444
ag5
(g9
S'\x80\x0f/\xd3/@\xbc?'
p5842
tp5843
Rp5844
aa(lp5845
g1578
ag5
(g9
S'\xc4\xf0\x00\xec\xe8\xc4\xcf?'
p5846
tp5847
Rp5848
aa(lp5849
g319
ag5
(g9
S'\xa5O\x9ex\xbdb\xbe?'
p5850
tp5851
Rp5852
aasS'REGISTERED DIETICIAN/NUTRITION PROFESSIONAL'
p5853
(lp5854
(lp5855
g225
ag5
(g9
S'\xed\xa8rQ\xde\xe8\xca?'
p5856
tp5857
Rp5858
aa(lp5859
Vdiabetes
p5860
ag5
(g9
S'\xe0\x86\xc7\x00\xe9\xce\xc5?'
p5861
tp5862
Rp5863
aa(lp5864
Vselfmanagement
p5865
ag5
(g9
S'\x1f!\xdbae\x0e\xc5?'
p5866
tp5867
Rp5868
aa(lp5869
Vassessment
p5870
ag5
(g9
S'\xe3\xd8t6\xd24\xc1?'
p5871
tp5872
Rp5873
aa(lp5874
Vtraining
p5875
ag5
(g9
S'ssR\xdf-\xe4\xbd?'
p5876
tp5877
Rp5878
aa(lp5879
g475
ag5
(g9
S'Gp\x88\xd2\xce\x82\xbd?'
p5880
tp5881
Rp5882
aa(lp5883
g4217
ag5
(g9
S'4\\\xa2\x99\xbdE\xb2?'
p5884
tp5885
Rp5886
aa(lp5887
g709
ag5
(g9
S'\xb7v\xcf\x14\x96\xd4\xad?'
p5888
tp5889
Rp5890
aa(lp5891
Vsession
p5892
ag5
(g9
S'+\x91\x14\x91/\xc9\xaa?'
p5893
tp5894
Rp5895
aa(lp5896
g4208
ag5
(g9
S'\xcd6\xdd\xb2\xae\xf0\x9e?'
p5897
tp5898
Rp5899
aa(lp5900
g2847
ag5
(g9
S'\xaaeuY\xa7\xb1\xdd?'
p5901
tp5902
Rp5903
aa(lp5904
g5206
ag5
(g9
S'm\x95:\xa3\xbf\xc6\xd5?'
p5905
tp5906
Rp5907
aa(lp5908
Vreassessment
p5909
ag5
(g9
S'\x12\xa1\xc7\xb9\xc6m\xd3?'
p5910
tp5911
Rp5912
aa(lp5913
Vwi
p5914
ag5
(g9
S'W/\x94n\xe6\x9f\x8f?'
p5915
tp5916
Rp5917
aa(lp5918
Vregimen
p5919
ag5
(g9
S'W/\x94n\xe6\x9f\x8f?'
p5920
tp5921
Rp5922
aa(lp5923
Vreferral
p5924
ag5
(g9
S'W/\x94n\xe6\x9f\x8f?'
p5925
tp5926
Rp5927
aa(lp5928
Vneeded
p5929
ag5
(g9
S'W/\x94n\xe6\x9f\x8f?'
p5930
tp5931
Rp5932
aa(lp5933
Vinterventions
p5934
ag5
(g9
S'W/\x94n\xe6\x9f\x8f?'
p5935
tp5936
Rp5937
aa(lp5938
Vface
p5939
ag5
(g9
S'\x91I\x0f\x8f?!\x80?'
p5940
tp5941
Rp5942
aa(lp5943
Vnutrition
p5944
ag5
(g9
S'Na\xfd\xb8\xe1H\xe5?'
p5945
tp5946
Rp5947
aa(lp5948
g627
ag5
(g9
S'\xb7\x14\x0fh\x9d\xa2\xca?'
p5949
tp5950
Rp5951
aa(lp5952
g4293
ag5
(g9
S'\x1f\xc8\xf3]!X\xb6?'
p5953
tp5954
Rp5955
aasS'EMERGENCY MEDICINE'
p5956
(lp5957
(lp5958
g699
ag5
(g9
S'\xb9iq5\x8f9\xd4?'
p5959
tp5960
Rp5961
aa(lp5962
g225
ag5
(g9
S'\x1f\xed\xd3\xb5\x1c\x1b\xbe?'
p5963
tp5964
Rp5965
aa(lp5966
g718
ag5
(g9
S' \xd9n\xeemN\xb9?'
p5967
tp5968
Rp5969
aa(lp5970
g5425
ag5
(g9
S'\x19o:\xf2\xc4<\xb8?'
p5971
tp5972
Rp5973
aa(lp5974
g3717
ag5
(g9
S'_\xaeyP\xb7n\xdc?'
p5975
tp5976
Rp5977
aa(lp5978
Vsevere
p5979
ag5
(g9
S'\x05edC\x98\x14\xc9?'
p5980
tp5981
Rp5982
aa(lp5983
Vmoderately
p5984
ag5
(g9
S'\xaf\x95\xa2lx\x94\xc6?'
p5985
tp5986
Rp5987
aa(lp5988
Vseverity
p5989
ag5
(g9
S'\xe2Hhw|\x88\xc2?'
p5990
tp5991
Rp5992
aa(lp5993
g567
ag5
(g9
S'^b\xc0\xf4\xfa\xa7\xdd?'
p5994
tp5995
Rp5996
aa(lp5997
g572
ag5
(g9
S'^b\xc0\xf4\xfa\xa7\xdd?'
p5998
tp5999
Rp6000
aa(lp6001
g395
ag5
(g9
S'\x88k\xf5\xb1\x03\xc7\xb7?'
p6002
tp6003
Rp6004
aa(lp6005
Vthreat
p6006
ag5
(g9
S'\xf9O\xf0\x8a\xd0f\xc5?'
p6007
tp6008
Rp6009
aa(lp6010
Vsignificant
p6011
ag5
(g9
S'\xf9O\xf0\x8a\xd0f\xc5?'
p6012
tp6013
Rp6014
aa(lp6015
Vlife
p6016
ag5
(g9
S'?\xda\xcf\x9c~\t\xc5?'
p6017
tp6018
Rp6019
aa(lp6020
Vhigh
p6021
ag5
(g9
S'\xda\xcf\xdcA\x0eo\xc0?'
p6022
tp6023
Rp6024
aa(lp6025
Vinjured
p6026
ag5
(g9
S'\x02\x9d4\x1b\xd7H\xbb?'
p6027
tp6028
Rp6029
aa(lp6030
Vill
p6031
ag5
(g9
S'\x02\x9d4\x1b\xd7H\xbb?'
p6032
tp6033
Rp6034
aa(lp6035
Vcritically
p6036
ag5
(g9
S'\x02\x9d4\x1b\xd7H\xbb?'
p6037
tp6038
Rp6039
aa(lp6040
Vcritical
p6041
ag5
(g9
S'\x02\x9d4\x1b\xd7H\xbb?'
p6042
tp6043
Rp6044
aa(lp6045
g1184
ag5
(g9
S'~\xec\x90\xb3\xd6\xca\xba?'
p6046
tp6047
Rp6048
aasS'PERIPHERAL VASCULAR DISEASE'
p6049
(lp6050
(lp6051
Vleg
p6052
ag5
(g9
S'_P\x98Ap\xa2\xd0?'
p6053
tp6054
Rp6055
aa(lp6056
Vartery
p6057
ag5
(g9
S'\x01\xb9X\x9b\x1f\x8d\xd0?'
p6058
tp6059
Rp6060
aa(lp6061
g699
ag5
(g9
S'\xe7*\xfbLb\xc7\xcc?'
p6062
tp6063
Rp6064
aa(lp6065
g1614
ag5
(g9
S'r\xae\xbaR]\xf2\xc5?'
p6066
tp6067
Rp6068
aa(lp6069
Vcatheter
p6070
ag5
(g9
S'ReJD\x04\x97\xc5?'
p6071
tp6072
Rp6073
aa(lp6074
Vcm
p6075
ag5
(g9
S'\xecC\x1a\nk\xae\xc4?'
p6076
tp6077
Rp6078
aa(lp6079
g480
ag5
(g9
S'\x97m\xabp*\x0b\xc4?'
p6080
tp6081
Rp6082
aa(lp6083
g485
ag5
(g9
S'\x97m\xabp*\x0b\xc4?'
p6084
tp6085
Rp6086
aa(lp6087
Vsq
p6088
ag5
(g9
S'\x83}\xe3(X\xc7\xc3?'
p6089
tp6090
Rp6091
aa(lp6092
Vdialysis
p6093
ag5
(g9
S'\xf4\xbdG\xfa\xcd\xa6\xbe?'
p6094
tp6095
Rp6096
aa(lp6097
Vnarrowed
p6098
ag5
(g9
S'\xed\xc4\r\xfc\xdc.\xbe?'
p6099
tp6100
Rp6101
aa(lp6102
g148
ag5
(g9
S'\xd9Q\xa0\xb3U\xec\xd8?'
p6103
tp6104
Rp6105
aa(lp6106
g26
ag5
(g9
S']\x1bS:v\r\xd0?'
p6107
tp6108
Rp6109
aa(lp6110
g36
ag5
(g9
S'W\x03\x9dpY\xb4\xce?'
p6111
tp6112
Rp6113
aa(lp6114
Vleft
p6115
ag5
(g9
S'F{7u\x1e\xd8\xcc?'
p6116
tp6117
Rp6118
aa(lp6119
g269
ag5
(g9
S'\x7f;\r\xc4\x1b\xaf\xcb?'
p6120
tp6121
Rp6122
aa(lp6123
Vvessel
p6124
ag5
(g9
S'@c\xe87\xc5\xd3\xc7?'
p6125
tp6126
Rp6127
aa(lp6128
Vekg
p6129
ag5
(g9
S'\xdf\x8cB/\xb6,\xc2?'
p6130
tp6131
Rp6132
aa(lp6133
g3281
ag5
(g9
S'\x84L0Hk\xd9\xc1?'
p6134
tp6135
Rp6136
aa(lp6137
g1662
ag5
(g9
S'l\x00\x97\x93!\xaa\xc1?'
p6138
tp6139
Rp6140
aa(lp6141
Vcoronary
p6142
ag5
(g9
S'<QMo\xa5\x82\xc0?'
p6143
tp6144
Rp6145
aa(lp6146
g1353
ag5
(g9
S'\xdcw\x15\xdf\xa7|\xc0?'
p6147
tp6148
Rp6149
aa(lp6150
g1041
ag5
(g9
S'kh\xc0\x02\x1fQ\xbf?'
p6151
tp6152
Rp6153
aa(lp6154
g2444
ag5
(g9
S'\x08*\r\xddG\xd0\xd6?'
p6155
tp6156
Rp6157
aa(lp6158
g3312
ag5
(g9
S'*:\x7f\xde\x80j\xc8?'
p6159
tp6160
Rp6161
aa(lp6162
g3979
ag5
(g9
S'\xa5\xf40\xee\x1d\xdf\xc6?'
p6163
tp6164
Rp6165
aa(lp6166
g3984
ag5
(g9
S'7\xf5O\xa6p\x04\xc6?'
p6167
tp6168
Rp6169
aa(lp6170
g3974
ag5
(g9
S'\x10\xd6j0:\x03\xc4?'
p6171
tp6172
Rp6173
aa(lp6174
Varm
p6175
ag5
(g9
S'\xa0w\xcd \xc3\xe8\xc1?'
p6176
tp6177
Rp6178
aa(lp6179
Vcompression
p6180
ag5
(g9
S'l\xa3?\xd8f\xef\xc0?'
p6181
tp6182
Rp6183
aa(lp6184
Vstudy
p6185
ag5
(g9
S'\xe7M\x87\xb1q/\xcb?'
p6186
tp6187
Rp6188
aa(lp6189
Vlegs
p6190
ag5
(g9
S"\x9aD\x01'\xbd?\xca?"
p6191
tp6192
Rp6193
aa(lp6194
g2477
ag5
(g9
S'\xcah"\x9f0\x8a\xc7?'
p6195
tp6196
Rp6197
aa(lp6198
g2235
ag5
(g9
S'\xba\x85(S\xab\t\xc7?'
p6199
tp6200
Rp6201
aa(lp6202
g2923
ag5
(g9
S'\xc4}\xc3\xcfT\x8f\xc6?'
p6203
tp6204
Rp6205
aa(lp6206
g1458
ag5
(g9
S'1/4\xfb\xfb\xaf\xc5?'
p6207
tp6208
Rp6209
aa(lp6210
g3354
ag5
(g9
S'P\xc8{g6\xdc\xc2?'
p6211
tp6212
Rp6213
aasS'CARDIOVASCULAR DISEASE (CARDIOLOGY)'
p6214
(lp6215
(lp6216
Vlead
p6217
ag5
(g9
S'2\xea\x1c\x08\xef\xa4\xc4?'
p6218
tp6219
Rp6220
aa(lp6221
Vdual
p6222
ag5
(g9
S'g\x8a\x15NB\x16\xc2?'
p6223
tp6224
Rp6225
aa(lp6226
g3882
ag5
(g9
S'J\xa0\xf6\xd0\xa1j\xc1?'
p6227
tp6228
Rp6229
aa(lp6230
Vphysician
p6231
ag5
(g9
S'\xb0\x93\xd5\xf2\xbc\x99\xc0?'
p6232
tp6233
Rp6234
aa(lp6235
g26
ag5
(g9
S'!\x87\x03\xcf\xdf\xf3\xcf?'
p6236
tp6237
Rp6238
aa(lp6239
g36
ag5
(g9
S'\x96\x14\xd1x\x80\xdc\xce?'
p6240
tp6241
Rp6242
aa(lp6243
g31
ag5
(g9
S'aX<\xedJ?\xc3?'
p6244
tp6245
Rp6246
aa(lp6247
g41
ag5
(g9
S'A\xacG\xc16\xe7\xc2?'
p6248
tp6249
Rp6250
aa(lp6251
g46
ag5
(g9
S'\xb6\xbaf\xae\x88\xbf\xc2?'
p6252
tp6253
Rp6254
aa(lp6255
g51
ag5
(g9
S'd\x8e\xc5\xf7\xb2\x9c\xc2?'
p6256
tp6257
Rp6258
aa(lp6259
Vheart
p6260
ag5
(g9
S'!f\xeb(\x08\x88\xda?'
p6261
tp6262
Rp6263
aa(lp6264
g2540
ag5
(g9
S'=Ky\xd2\n)\xcd?'
p6265
tp6266
Rp6267
aa(lp6268
g4150
ag5
(g9
S'\xafkO\xc4Z\x1f\xc9?'
p6269
tp6270
Rp6271
aa(lp6272
g2444
ag5
(g9
S'\x05\xce\xca\xa35\xa7\xc7?'
p6273
tp6274
Rp6275
aa(lp6276
Vinterpretation
p6277
ag5
(g9
S'\xa2\xc1\x1dxC^\xc4?'
p6278
tp6279
Rp6280
aa(lp6281
g400
ag5
(g9
S'1Q\xdc\xfa\x00;\xc1?'
p6282
tp6283
Rp6284
aa(lp6285
Vdruginduced
p6286
ag5
(g9
S'\x18\xc4p\xd6\xb7Z\xc0?'
p6287
tp6288
Rp6289
aa(lp6290
g395
ag5
(g9
S';R?3\xeaS\xc0?'
p6291
tp6292
Rp6293
aa(lp6294
g877
ag5
(g9
S'\xea\x87)D\x11\xaa\xbf?'
p6295
tp6296
Rp6297
aa(lp6298
g3020
ag5
(g9
S'Rh\xad\xca\xd1\xd0\xc6?'
p6299
tp6300
Rp6301
aa(lp6302
g218
ag5
(g9
S'[\xca\x95\x9c\xcfW\xc2?'
p6303
tp6304
Rp6305
aa(lp6306
Vexercise
p6307
ag5
(g9
S'\xb5\x1b8\x95\x9f\x86\xc0?'
p6308
tp6309
Rp6310
aa(lp6311
Vstress
p6312
ag5
(g9
S'\xbc\xf7{\xdf8=\xbf?'
p6313
tp6314
Rp6315
aasS'PHYSICAL MEDICINE AND REHABILITATION'
p6316
(lp6317
(lp6318
g225
ag5
(g9
S'\xb6\x9a\xd2\xf8\xebi\xd8?'
p6319
tp6320
Rp6321
aa(lp6322
g718
ag5
(g9
S'a\t#\x15\x0eB\xcb?'
p6323
tp6324
Rp6325
aa(lp6326
g450
ag5
(g9
S'\x98*\xf1\xd4\xd57\xc5?'
p6327
tp6328
Rp6329
aa(lp6330
g455
ag5
(g9
S'#W\xd2\xfceu\xc2?'
p6331
tp6332
Rp6333
aa(lp6334
g465
ag5
(g9
S'\xd9A\xde\x05\xa4\x9b\xc1?'
p6335
tp6336
Rp6337
aa(lp6338
g723
ag5
(g9
S'8\x04\xd6\xa4\x82\xf9\xc0?'
p6339
tp6340
Rp6341
aa(lp6342
g31
ag5
(g9
S'H\xa2O\xce\x90b\xd0?'
p6343
tp6344
Rp6345
aa(lp6346
g46
ag5
(g9
S'h\xb5\xa6\x9d\x1e4\xcb?'
p6347
tp6348
Rp6349
aa(lp6350
g51
ag5
(g9
S'O{\xaa*\x0f\xed\xca?'
p6351
tp6352
Rp6353
aa(lp6354
Vjoint
p6355
ag5
(g9
S'\x97J\x07P#\x96\xc9?'
p6356
tp6357
Rp6358
aa(lp6359
g528
ag5
(g9
S'\x9c\xf5\xec\x8dC\x91\xc6?'
p6360
tp6361
Rp6362
aa(lp6363
g2305
ag5
(g9
S'r^z\x89\xf5\x91\xc0?'
p6364
tp6365
Rp6366
aa(lp6367
g279
ag5
(g9
S'\xd9#\x92\x92)y\xd2?'
p6368
tp6369
Rp6370
aa(lp6371
g1399
ag5
(g9
S'\xcf\xe5pe\xbe\x8f\xc7?'
p6372
tp6373
Rp6374
aa(lp6375
Vstudies
p6376
ag5
(g9
S'\x01\xb6\xcdeL\x9f\xc5?'
p6377
tp6378
Rp6379
aa(lp6380
g1409
ag5
(g9
S'=z\x1eo[s\xc5?'
p6381
tp6382
Rp6383
aa(lp6384
Vnerve
p6385
ag5
(g9
S'\xe9\xe2JA\xf8\x1e\xc3?'
p6386
tp6387
Rp6388
aa(lp6389
Vmuscles
p6390
ag5
(g9
S'\xe0a\xab<\xa00\xc2?'
p6391
tp6392
Rp6393
aa(lp6394
g1404
ag5
(g9
S'\xeb\xb4\xb8y\x84~\xc1?'
p6395
tp6396
Rp6397
aa(lp6398
g208
ag5
(g9
S'\xd5\x1b\xa90\xe8R\xd7?'
p6399
tp6400
Rp6401
aa(lp6402
g1282
ag5
(g9
S'D\xaa>\x97\x9f|\xc9?'
p6403
tp6404
Rp6405
aasS'AUDIOLOGIST'
p6406
(lp6407
(lp6408
Vrecognition
p6409
ag5
(g9
S'&G\xafM\x82\xd6\xd6?'
p6410
tp6411
Rp6412
aa(lp6413
Vspeech
p6414
ag5
(g9
S'\xa9\r\x93\x0e\xb0U\xd5?'
p6415
tp6416
Rp6417
aa(lp6418
Veardrum
p6419
ag5
(g9
S'%\x9cv\x96q\x1f\xd5?'
p6420
tp6421
Rp6422
aa(lp6423
Vloss
p6424
ag5
(g9
S'\x87\x18h\x8e\x02\xf0\xd4?'
p6425
tp6426
Rp6427
aa(lp6428
Vprobe
p6429
ag5
(g9
S'2\x16\xdeb\x99t\xc9?'
p6430
tp6431
Rp6432
aa(lp6433
Vtesting
p6434
ag5
(g9
S'_\x86\xa5\x1d8\x0e\xc2?'
p6435
tp6436
Rp6437
aa(lp6438
g346
ag5
(g9
S'\xbc\x9e^\x15X5\xb4?'
p6439
tp6440
Rp6441
aa(lp6442
g376
ag5
(g9
S'\xee\xe8)\xa1y\xc5\xce?'
p6443
tp6444
Rp6445
aa(lp6446
Vear
p6447
ag5
(g9
S'J\x1e\x05G\x14\xc4\xca?'
p6448
tp6449
Rp6450
aa(lp6451
Vcochlear
p6452
ag5
(g9
S'\xcc\xefA\xb0\xe8#\xaf?'
p6453
tp6454
Rp6455
aa(lp6456
Vhearing
p6457
ag5
(g9
S'\x8a\xb8\xa4\xd9e\x8b\xdb?'
p6458
tp6459
Rp6460
aa(lp6461
Vconduction
p6462
ag5
(g9
S'\xab"\xe6\x9e\xf3\xfb\xd4?'
p6463
tp6464
Rp6465
aa(lp6466
Vbone
p6467
ag5
(g9
S'\x16\x0f\xdb\x11\xe2\n\xc5?'
p6468
tp6469
Rp6470
aa(lp6471
Vpure
p6472
ag5
(g9
S'\x15\xefJ(\x9b\x12\xb3?'
p6473
tp6474
Rp6475
aa(lp6476
Vtone
p6477
ag5
(g9
S'\xaa\x0c\x7f\x92H\xe5\xb1?'
p6478
tp6479
Rp6480
aa(lp6481
Vassessment
p6482
ag5
(g9
S'\x93^\xf9y#=\xd5?'
p6483
tp6484
Rp6485
aa(lp6486
Vrecording
p6487
ag5
(g9
S'\xf6K\xfb\x87\xe8C\xb8?'
p6488
tp6489
Rp6490
aa(lp6491
g5728
ag5
(g9
S"A\x13'M\xde\x84\xb6?"
p6492
tp6493
Rp6494
aa(lp6495
Vabnormal
p6496
ag5
(g9
S'\x19H\xa50\xde\x9b\xb3?'
p6497
tp6498
Rp6499
aa(lp6500
Vbalance
p6501
ag5
(g9
S'!\xb0\xaf\xa3m\x8f\xb3?'
p6502
tp6503
Rp6504
aa(lp6505
Vmovement
p6506
ag5
(g9
S'\xb9\x08\xa1\x14\x84\xf5\xb2?'
p6507
tp6508
Rp6509
aa(lp6510
g1184
ag5
(g9
S'\xcatN\x96P\x8a\xb0?'
p6511
tp6512
Rp6513
aa(lp6514
Vmuscle
p6515
ag5
(g9
S'x\x86\x1f\xe2\x84\xfd\xaf?'
p6516
tp6517
Rp6518
aasS'FAMILY PRACTICE'
p6519
(lp6520
(lp6521
g699
ag5
(g9
S'\n8\x10\x84.\xc9\xd6?'
p6522
tp6523
Rp6524
aa(lp6525
g225
ag5
(g9
S'!(\xf2\xf0\xd5\xd8\xd5?'
p6526
tp6527
Rp6528
aa(lp6529
g2387
ag5
(g9
S'\xb4{V\xa0v\xa4\xc7?'
p6530
tp6531
Rp6532
aa(lp6533
g2596
ag5
(g9
S'\xdf\xb2\x8a1V\x07\xc5?'
p6534
tp6535
Rp6536
aa(lp6537
g987
ag5
(g9
S'\xa0y\xbe\xfe\x8d\x9e\xc3?'
p6538
tp6539
Rp6540
aa(lp6541
g3687
ag5
(g9
S'\x19x\xb1rT\xc0\xc1?'
p6542
tp6543
Rp6544
aa(lp6545
g475
ag5
(g9
S';d\xb4W\x00\x0c\xb3?'
p6546
tp6547
Rp6548
aa(lp6549
g46
ag5
(g9
S'P\xd5\x12\xd7h\xa7\xce?'
p6550
tp6551
Rp6552
aa(lp6553
g51
ag5
(g9
S'\x99\xc5\x12\xad\x8c^\xce?'
p6554
tp6555
Rp6556
aa(lp6557
g56
ag5
(g9
S'\x11\x93\x13n\xec\x96\xc9?'
p6558
tp6559
Rp6560
aa(lp6561
Vadministration
p6562
ag5
(g9
S'\xe4\xdb\xec\xdb\xaa\x84\xb7?'
p6563
tp6564
Rp6565
aa(lp6566
g4370
ag5
(g9
S'h\xc2\xf0M&\x1d\xb3?'
p6567
tp6568
Rp6569
aa(lp6570
g390
ag5
(g9
S'\xf6Q\xf2z{\xd0\xd1?'
p6571
tp6572
Rp6573
aa(lp6574
g592
ag5
(g9
S'X\xd43\xb8\x07\xbc\xca?'
p6575
tp6576
Rp6577
aa(lp6578
g877
ag5
(g9
S'\xdbs[7\x1d\x8b\xc0?'
p6579
tp6580
Rp6581
aa(lp6582
g400
ag5
(g9
S'\xe3\xd6\x16\x06\xd3{\xbb?'
p6583
tp6584
Rp6585
aa(lp6586
g395
ag5
(g9
S'\xe4/\xda\xfa\x9d\x0b\xbb?'
p6587
tp6588
Rp6589
aa(lp6590
g882
ag5
(g9
S'Y\x10\x9e)kw\xb5?'
p6591
tp6592
Rp6593
aa(lp6594
g4865
ag5
(g9
S'\x96$D\xad\xbc\xdd\xb4?'
p6595
tp6596
Rp6597
aa(lp6598
g3540
ag5
(g9
S'\xe0\x9a@H\xe1\x8a\xb3?'
p6599
tp6600
Rp6601
aa(lp6602
g208
ag5
(g9
S'lz\xae\x02\xda+\xd6?'
p6603
tp6604
Rp6605
aa(lp6606
g4621
ag5
(g9
S'}\xe07\x86u\xba\xc6?'
p6607
tp6608
Rp6609
aasS'OTOLARYNGOLOGY'
p6610
(lp6611
(lp6612
Vear
p6613
ag5
(g9
S'\xa5wD:\xd4\xf5\xc8?'
p6614
tp6615
Rp6616
aa(lp6617
g6419
ag5
(g9
S'\x8cz\xb5\x87\x02G\xc3?'
p6618
tp6619
Rp6620
aa(lp6621
g2953
ag5
(g9
S'\x89^i\xb2\x81\xdf\xc1?'
p6622
tp6623
Rp6624
aa(lp6625
Vpassages
p6626
ag5
(g9
S'6;-\xa4P\x93\xbf?'
p6627
tp6628
Rp6629
aa(lp6630
g1614
ag5
(g9
S'\xe4\xb26\xbd\xf5y\xbe?'
p6631
tp6632
Rp6633
aa(lp6634
g26
ag5
(g9
S'\x1f\x84\xbb=\xf8\x95\xd4?'
p6635
tp6636
Rp6637
aa(lp6638
g51
ag5
(g9
S'q\xacj\xc4\xe7o\xd3?'
p6639
tp6640
Rp6641
aa(lp6642
g56
ag5
(g9
S'\x7fX\x94Fr\xc9\xc5?'
p6643
tp6644
Rp6645
aa(lp6646
g1679
ag5
(g9
S'6\x0e\xd0\x18\xd5\xa8\xd3?'
p6647
tp6648
Rp6649
aa(lp6650
g1684
ag5
(g9
S'u\x9c\x08\xb9Y\x85\xd3?'
p6651
tp6652
Rp6653
aa(lp6654
g2453
ag5
(g9
S'\x1d\xf0\x9cB>\xda\xd2?'
p6655
tp6656
Rp6657
aa(lp6658
g390
ag5
(g9
S'n\xb7ar\x92\xea\xd1?'
p6659
tp6660
Rp6661
aa(lp6662
g1698
ag5
(g9
S'\x07]\xe4\xbcB\xc8\xc1?'
p6663
tp6664
Rp6665
aa(lp6666
Vnasal
p6667
ag5
(g9
S'\x80I\xd3\x07B\xa3\xc9?'
p6668
tp6669
Rp6670
aa(lp6671
Vendoscope
p6672
ag5
(g9
S'\x8ef\x1b\xf7\xd7$\xc9?'
p6673
tp6674
Rp6675
aa(lp6676
g4078
ag5
(g9
S"^\x94\xb1\xa9'\xc2\xc5?"
p6677
tp6678
Rp6679
aa(lp6680
g1291
ag5
(g9
S'\xe9\xd11<\xc19\xc5?'
p6681
tp6682
Rp6683
aa(lp6684
Vflexible
p6685
ag5
(g9
S'|\xa8\xdd\xfb\x12\xf9\xc4?'
p6686
tp6687
Rp6688
aa(lp6689
Vvoice
p6690
ag5
(g9
S'\xac\x86]\xf9\xda\xe5\xc3?'
p6691
tp6692
Rp6693
aa(lp6694
Vbox
p6695
ag5
(g9
S'\xf1!\xf3\xb8\x11\xda\xc3?'
p6696
tp6697
Rp6698
aasS'GYNECOLOGICAL/ONCOLOGY'
p6699
(lp6700
(lp6701
Vovaries
p6702
ag5
(g9
S'ur_d\x1bN\xc5?'
p6703
tp6704
Rp6705
aa(lp6706
Vuterus
p6707
ag5
(g9
S'f\x9dPn\x13-\xc5?'
p6708
tp6709
Rp6710
aa(lp6711
Vtubes
p6712
ag5
(g9
S' U\x88~("\xc5?'
p6713
tp6714
Rp6715
aa(lp6716
g1191
ag5
(g9
S'~\x0c\n\xc5Q\xfd\xb9?'
p6717
tp6718
Rp6719
aa(lp6720
Vabdominal
p6721
ag5
(g9
S'\xd2?\x9f\x8b\x01\x87\xb7?'
p6722
tp6723
Rp6724
aa(lp6725
g450
ag5
(g9
S'\xa2\xbdVS@\xe5\xb5?'
p6726
tp6727
Rp6728
aa(lp6729
g331
ag5
(g9
S'\xd8\xc6\x8e\xea\x19E\xb5?'
p6730
tp6731
Rp6732
aa(lp6733
g1249
ag5
(g9
S'p\xcd\xec\xa5\xbdJ\xc0?'
p6734
tp6735
Rp6736
aa(lp6737
g66
ag5
(g9
S'\xb4\xa2v2H\xd5\xbf?'
p6738
tp6739
Rp6740
aa(lp6741
Vgrams
p6742
ag5
(g9
S'<\xf3:s\r\xe2\xbd?'
p6743
tp6744
Rp6745
aa(lp6746
g4343
ag5
(g9
S'\x988-\xe6~~\xbd?'
p6747
tp6748
Rp6749
aa(lp6750
g562
ag5
(g9
S'`\tk\xe4\xab\xd9\xb4?'
p6751
tp6752
Rp6753
aa(lp6754
g1679
ag5
(g9
S'UK!Gt\xaa\xd6?'
p6755
tp6756
Rp6757
aa(lp6758
g1689
ag5
(g9
S'\x1d;\xf7\x14Y3\xd6?'
p6759
tp6760
Rp6761
aa(lp6762
g390
ag5
(g9
S'rO\xc4\xe5\x12j\xd4?'
p6763
tp6764
Rp6765
aa(lp6766
g892
ag5
(g9
S'V\x04\xb1ID\xe3\xce?'
p6767
tp6768
Rp6769
aa(lp6770
g279
ag5
(g9
S'\xc1\xa6f:\xd3\xe5\xc1?'
p6771
tp6772
Rp6773
aa(lp6774
Vinfusion
p6775
ag5
(g9
S'jm\x07\x1f\x1c\xbf\xbf?'
p6776
tp6777
Rp6778
aa(lp6779
g284
ag5
(g9
S'\x0ccO\xff\x94\xac\xba?'
p6780
tp6781
Rp6782
aa(lp6783
Vvaginal
p6784
ag5
(g9
S'3\xa3\xb76\xe3\xe1\xb6?'
p6785
tp6786
Rp6787
aa(lp6788
g1938
ag5
(g9
S'\\\xc8[\x8c\x83\xde\xb4?'
p6789
tp6790
Rp6791
aa(lp6792
g2535
ag5
(g9
S'\xc2M\x857\xa7k\xb3?'
p6793
tp6794
Rp6795
aa(lp6796
g289
ag5
(g9
S'9\x92e\x9b\xad\x9b\xb2?'
p6797
tp6798
Rp6799
aa(lp6800
g208
ag5
(g9
S'\xbd\x99D\x8d\x14z\xd9?'
p6801
tp6802
Rp6803
aa(lp6804
g213
ag5
(g9
S'r2PE(\x87\xd7?'
p6805
tp6806
Rp6807
aa(lp6808
g1578
ag5
(g9
S'\xf8\x89\x7f"\xd4\x9c\xd6?'
p6809
tp6810
Rp6811
aa(lp6812
g2006
ag5
(g9
S')k\xbc\x84zQ\xb6?'
p6813
tp6814
Rp6815
aasS'DERMATOLOGY'
p6816
(lp6817
(lp6818
Vgrowth
p6819
ag5
(g9
S'\xfb\x03\xe1V\x8aD\xd7?'
p6820
tp6821
Rp6822
aa(lp6823
Vdestruction
p6824
ag5
(g9
S'\xb1\xe1\xba\x93\x80\xaa\xcf?'
p6825
tp6826
Rp6827
aa(lp6828
Vtrunk
p6829
ag5
(g9
S'5\xb9\x9dy\xa7g\xc2?'
p6830
tp6831
Rp6832
aa(lp6833
Varms
p6834
ag5
(g9
S'\xe9)\x8c\xb8\xdc\xf9\xc0?'
p6835
tp6836
Rp6837
aa(lp6838
Vlips
p6839
ag5
(g9
S'\xbf\xfb\xd7\xdc\x16\xdd\xc0?'
p6840
tp6841
Rp6842
aa(lp6843
Veyelids
p6844
ag5
(g9
S'(\x9b\xe8\x16:\x9b\xc0?'
p6845
tp6846
Rp6847
aa(lp6848
Vlegs
p6849
ag5
(g9
S'Yv;\x18#+\xbf?'
p6850
tp6851
Rp6852
aa(lp6853
Vcentimeters
p6854
ag5
(g9
S'\x96p\xb6\x1bE^\xe1?'
p6855
tp6856
Rp6857
aa(lp6858
Vmalignant
p6859
ag5
(g9
S'H\x12\x88GF\x05\xca?'
p6860
tp6861
Rp6862
aa(lp6863
g1390
ag5
(g9
S'\xd2\x84\x15?\x90v\xc0?'
p6864
tp6865
Rp6866
aa(lp6867
Vgenitals
p6868
ag5
(g9
S'\xb9ze\xd1{$\xbd?'
p6869
tp6870
Rp6871
aa(lp6872
g91
ag5
(g9
S'\xbc\x871\xea@\x9b\xd3?'
p6873
tp6874
Rp6875
aa(lp6876
g96
ag5
(g9
S'\xfd\x18\xcc+\x07\xed\xc6?'
p6877
tp6878
Rp6879
aa(lp6880
g1679
ag5
(g9
S'\x94\xfa\xdb\xd6\xbb\x8f\xc1?'
p6881
tp6882
Rp6883
aa(lp6884
g1684
ag5
(g9
S'\xd8\x08W\x8c\x11T\xc1?'
p6885
tp6886
Rp6887
aa(lp6888
g1689
ag5
(g9
S'^\xbf0Ms3\xc1?'
p6889
tp6890
Rp6891
aa(lp6892
g390
ag5
(g9
S'\xeb\xd1fm\xab\x14\xc0?'
p6893
tp6894
Rp6895
aa(lp6896
g2453
ag5
(g9
S'\xb6\x99\xfe\xdb!\xb8\xbf?'
p6897
tp6898
Rp6899
aa(lp6900
Vmouth
p6901
ag5
(g9
S'\x07\x12-#\xa8\xa3\xc8?'
p6902
tp6903
Rp6904
aa(lp6905
g208
ag5
(g9
S'\x97cc\x95bY\xc1?'
p6906
tp6907
Rp6908
aa(lp6909
Vhands
p6910
ag5
(g9
S'\xf0\xfb\x8c\xb1D\xca\xbd?'
p6911
tp6912
Rp6913
aasS'GENERAL PRACTICE'
p6914
(lp6915
(lp6916
g699
ag5
(g9
S"\x86'&\x1bk[\xd9?"
p6917
tp6918
Rp6919
aa(lp6920
g225
ag5
(g9
S'\x06,[E2\xaa\xd7?'
p6921
tp6922
Rp6923
aa(lp6924
g821
ag5
(g9
S'\x98\x1b\xc3\xa8\xe6W\xb7?'
p6925
tp6926
Rp6927
aa(lp6928
g490
ag5
(g9
S'\x089\xeas/\\\xb6?'
p6929
tp6930
Rp6931
aa(lp6932
g475
ag5
(g9
S'm\xc5B\x9f\x10\x0b\xb2?'
p6933
tp6934
Rp6935
aa(lp6936
g269
ag5
(g9
S'J\x90\xccp\x1f\xb6\xc0?'
p6937
tp6938
Rp6939
aa(lp6940
g495
ag5
(g9
S'\xb4\xf0\x12\xb8N\x95\xbb?'
p6941
tp6942
Rp6943
aa(lp6944
g1353
ag5
(g9
S'<w\xc3\xdd\xd1z\xbb?'
p6945
tp6946
Rp6947
aa(lp6948
g1041
ag5
(g9
S'J\xe4-\xf8\xfea\xb6?'
p6949
tp6950
Rp6951
aa(lp6952
g1662
ag5
(g9
S'\xfd\x92&\x97J3\xb4?'
p6953
tp6954
Rp6955
aa(lp6956
g1368
ag5
(g9
S'\x88\xfd\xb8\xb8Y\x86\xb2?'
p6957
tp6958
Rp6959
aa(lp6960
g66
ag5
(g9
S'\x8a;g\x1e;\\\xb2?'
p6961
tp6962
Rp6963
aa(lp6964
g533
ag5
(g9
S'\xbcD\x9e8\xdc:\xb2?'
p6965
tp6966
Rp6967
aa(lp6968
g1679
ag5
(g9
S'\xd8\x92;\x1b\x0f.\xd2?'
p6969
tp6970
Rp6971
aa(lp6972
g1689
ag5
(g9
S'\xfc\xc0\xa6\x96\x86\xce\xd1?'
p6973
tp6974
Rp6975
aa(lp6976
g279
ag5
(g9
S'o\xa2UI_N\xc1?'
p6977
tp6978
Rp6979
aa(lp6980
g208
ag5
(g9
S'\xedH\xba\x00\x1b\x07\xd8?'
p6981
tp6982
Rp6983
aa(lp6984
g1458
ag5
(g9
S'\xf3\x98\xbc\xdd9o\xd4?'
p6985
tp6986
Rp6987
aa(lp6988
g2244
ag5
(g9
S'#HP\x9f\x0e7\xce?'
p6989
tp6990
Rp6991
aa(lp6992
g4626
ag5
(g9
S'\xde\xe52\xd2z\xef\xc3?'
p6993
tp6994
Rp6995
aa(lp6996
g4621
ag5
(g9
S'\xe1\xd0\x10\xb2\xc8\xae\xc3?'
p6997
tp6998
Rp6999
aa(lp7000
g4631
ag5
(g9
S'j\xb4\x99\x8a\x02\x92\xbf?'
p7001
tp7002
Rp7003
aa(lp7004
g3771
ag5
(g9
S'\xa5\x10\xcbv\xf7\xb1\xb1?'
p7005
tp7006
Rp7007
aasS'PHYSICAL THERAPIST'
p7008
(lp7009
(lp7010
g1083
ag5
(g9
S'vT~B\xba*\xd8?'
p7011
tp7012
Rp7013
aa(lp7014
g1001
ag5
(g9
S'\x0f:R\x9c\x9b\xef\xc7?'
p7015
tp7016
Rp7017
aa(lp7018
g938
ag5
(g9
S't\x99x\x1b\xea\x7f\xc6?'
p7019
tp7020
Rp7021
aa(lp7022
g1092
ag5
(g9
S'\x9fe3A\xfd\xff\xc4?'
p7023
tp7024
Rp7025
aa(lp7026
g123
ag5
(g9
S'\xbc[W=s\xbd\xbe?'
p7027
tp7028
Rp7029
aa(lp7030
g1101
ag5
(g9
S'7\x11\x00\x0b\xf0\r\xbb?'
p7031
tp7032
Rp7033
aa(lp7034
g36
ag5
(g9
S'\x03\xe0\xb4u\x1e\x8b\xd5?'
p7035
tp7036
Rp7037
aa(lp7038
g1016
ag5
(g9
S'\x82<\xc7\xf7\xfcm\xd4?'
p7039
tp7040
Rp7041
aa(lp7042
g1115
ag5
(g9
S'\x8b0\xc3 |\xf5\xca?'
p7043
tp7044
Rp7045
aa(lp7046
g1130
ag5
(g9
S'\x10\x8f\xff\xfei\x9e\xc0?'
p7047
tp7048
Rp7049
aa(lp7050
g1139
ag5
(g9
S'!]\xab\x82\x8eR\xbf?'
p7051
tp7052
Rp7053
aa(lp7054
g1144
ag5
(g9
S'!]\xab\x82\x8eR\xbf?'
p7055
tp7056
Rp7057
aa(lp7058
g395
ag5
(g9
S'\x82\xba\x1f\x82\xfe\xf1\xbb?'
p7059
tp7060
Rp7061
aa(lp7062
g1149
ag5
(g9
S'y\xbf\x14\x1f\xa3%\xd6?'
p7063
tp7064
Rp7065
aa(lp7066
g1154
ag5
(g9
S'\xad\x0c\xe3,\x06\xf5\xca?'
p7067
tp7068
Rp7069
aa(lp7070
g1159
ag5
(g9
S'xV\x03\xd0v\xcd\xca?'
p7071
tp7072
Rp7073
aa(lp7074
g1164
ag5
(g9
S'xV\x03\xd0v\xcd\xca?'
p7075
tp7076
Rp7077
aa(lp7078
g1169
ag5
(g9
S'\xd6\x83O\xd4\xae]\xca?'
p7079
tp7080
Rp7081
aa(lp7082
g1174
ag5
(g9
S'\xd6\x83O\xd4\xae]\xca?'
p7083
tp7084
Rp7085
aa(lp7086
g1179
ag5
(g9
S'l}\xb0\n\x0f\xe9\xc8?'
p7087
tp7088
Rp7089
aa(lp7090
g1184
ag5
(g9
S"'\xf1%\xf7\xffz\xbe?"
p7091
tp7092
Rp7093
aasS'ANESTHESIOLOGIST ASSISTANTS'
p7094
(lp7095
(lp7096
Vprocedure
p7097
ag5
(g9
S'O\xbai\xba,\x0e\xd7?'
p7098
tp7099
Rp7100
aa(lp7101
g346
ag5
(g9
S'\r\xf9@=\xdf\xca\xc5?'
p7102
tp7103
Rp7104
aa(lp7105
g2270
ag5
(g9
S'\xd3\x06\x01\xd8#\xf9\xb0?'
p7106
tp7107
Rp7108
aa(lp7109
g2265
ag5
(g9
S'U\x88\x90\x92y8\xaf?'
p7110
tp7111
Rp7112
aa(lp7113
g2285
ag5
(g9
S'\x8f\xb9\xfd\xcb)\x1e\xac?'
p7114
tp7115
Rp7116
aa(lp7117
g2290
ag5
(g9
S'^\x93\x94\x9d\xa2:\xd4?'
p7118
tp7119
Rp7120
aa(lp7121
g2295
ag5
(g9
S'\xe5TI\xe8\xbd\x9c\xc6?'
p7122
tp7123
Rp7124
aa(lp7125
g2305
ag5
(g9
S'\x8aT\xb3\xd6\xfb\xd2\xc0?'
p7126
tp7127
Rp7128
aa(lp7129
Vupper
p7130
ag5
(g9
S'\xd1~\xc0\x02\x96=\xa9?'
p7131
tp7132
Rp7133
aa(lp7134
Vshunt
p7135
ag5
(g9
S'e\xfbt\xc8\xd1 \xa6?'
p7136
tp7137
Rp7138
aa(lp7139
Vurinary
p7140
ag5
(g9
S'\x0e\n\\R\xe3}\xa4?'
p7141
tp7142
Rp7143
aa(lp7144
g2310
ag5
(g9
S'\xfeW\x9b\xb1\xfb\xff\xa3?'
p7145
tp7146
Rp7147
aa(lp7148
g2335
ag5
(g9
S'\xa1\xc3\xf9\xc9M\xfa\xcb?'
p7149
tp7150
Rp7151
aa(lp7152
g2340
ag5
(g9
S'*\t\xf4\xacK\xcf\xc8?'
p7153
tp7154
Rp7155
aa(lp7156
g3098
ag5
(g9
S'i\xf5O\x92\xbaw\xa2?'
p7157
tp7158
Rp7159
aa(lp7160
Vanesthesia
p7161
ag5
(g9
S'\xff"\xcc\x9e\xbf\xf4\xe9?'
p7162
tp7163
Rp7164
aa(lp7165
g2365
ag5
(g9
S"e'C\x97v\xb0\xc1?"
p7166
tp7167
Rp7168
aa(lp7169
g2370
ag5
(g9
S'\xdd\x8c\x1b\xecme\xba?'
p7170
tp7171
Rp7172
aa(lp7173
g218
ag5
(g9
S'\xee\xeeBM\x82N\xb3?'
p7174
tp7175
Rp7176
aa(lp7177
g4674
ag5
(g9
S'3\xd9\x9e\xc2\x9fl\xb2?'
p7178
tp7179
Rp7180
aa(lp7181
Vcord
p7182
ag5
(g9
S'N\x1aL%\x9bL\xb1?'
p7183
tp7184
Rp7185
aa(lp7186
Vknee
p7187
ag5
(g9
S'\xcd4\x9b\xbe\x0b\xdc\xae?'
p7188
tp7189
Rp7190
aa(lp7191
Vspinal
p7192
ag5
(g9
S'\xf7\xbce\xda\xe1C\xad?'
p7193
tp7194
Rp7195
aa(lp7196
Vspine
p7197
ag5
(g9
S'_\xfc\x90J8\xcf\xaa?'
p7198
tp7199
Rp7200
aasS'ANESTHESIOLOGY'
p7201
(lp7202
(lp7203
g7097
ag5
(g9
S"\x03:'\x1a\x16n\xd6?"
p7204
tp7205
Rp7206
aa(lp7207
g2265
ag5
(g9
S'\x1b\xcf\x9f3\xd0\x89\xbc?'
p7208
tp7209
Rp7210
aa(lp7211
g2290
ag5
(g9
S'\xd6\\\xcf]&\x8a\xcf?'
p7212
tp7213
Rp7214
aa(lp7215
g2305
ag5
(g9
S'V\x01\xa6\xe9\x9aa\xc2?'
p7216
tp7217
Rp7218
aa(lp7219
g2300
ag5
(g9
S'\x93\x08\xf8\xb7\x17\xf9\xc1?'
p7220
tp7221
Rp7222
aa(lp7223
g71
ag5
(g9
S'/=\x9d\xfc\x82\x97\xc0?'
p7224
tp7225
Rp7226
aa(lp7227
g7130
ag5
(g9
S'Ui\xe7\x03\xbbf\xba?'
p7228
tp7229
Rp7230
aa(lp7231
Vguidance
p7232
ag5
(g9
S'f-\xefM\x86m\xb9?'
p7233
tp7234
Rp7235
aa(lp7236
g528
ag5
(g9
S'\x8e\x0b2?\xfc*\xb9?'
p7237
tp7238
Rp7239
aa(lp7240
g5661
ag5
(g9
S'\xec\xa2\x84O\x1b\xde\xb6?'
p7241
tp7242
Rp7243
aa(lp7244
Vimaging
p7245
ag5
(g9
S'\xfb\x15f:\xa0#\xb4?'
p7246
tp7247
Rp7248
aa(lp7249
g2325
ag5
(g9
S'\x80\xbbG\xc3YN\xe8?'
p7250
tp7251
Rp7252
aa(lp7253
g2335
ag5
(g9
S'\xa1\xd0\nO&\xf9\xbc?'
p7254
tp7255
Rp7256
aa(lp7257
Vintestine
p7258
ag5
(g9
S'\xeb\x05A\r\x86<\xbb?'
p7259
tp7260
Rp7261
aa(lp7262
g2340
ag5
(g9
S'v\x19\x9e\rX\xe1\xb9?'
p7263
tp7264
Rp7265
aa(lp7266
Vuse
p7267
ag5
(g9
S'\x98I\xf6\x97@B\xb4?'
p7268
tp7269
Rp7270
aa(lp7271
Vinsertion
p7272
ag5
(g9
S'\x85^Ys\xd7\x80\xba?'
p7273
tp7274
Rp7275
aa(lp7276
g218
ag5
(g9
S'QN`\xe4\x9b%\xb7?'
p7277
tp7278
Rp7279
aa(lp7280
Vcatheter
p7281
ag5
(g9
S'\xeeL\x9e\xab\xbc%\xb5?'
p7282
tp7283
Rp7284
aa(lp7285
g2011
ag5
(g9
S'\x00\x9d\xc0R\xee\xb3\xb4?'
p7286
tp7287
Rp7288
aa(lp7289
Vnerve
p7290
ag5
(g9
S'\xff\x03\x87\xbb/\x9d\xb4?'
p7291
tp7292
Rp7293
aasS'SPEECH LANGUAGE PATHOLOGIST'
p7294
(lp7295
(lp7296
g6414
ag5
(g9
S'yQ\xbf\xb4!\xe6\xd6?'
p7297
tp7298
Rp7299
aa(lp7300
Vswallowing
p7301
ag5
(g9
S'[b\xb2\x91\xd3\xbf\xcf?'
p7302
tp7303
Rp7304
aa(lp7305
g123
ag5
(g9
S'\xfe\xeb.\xd6\x02\xc6\xc5?'
p7306
tp7307
Rp7308
aa(lp7309
g3944
ag5
(g9
S'\xc0\x0bx\xc4\r!\xc2?'
p7310
tp7311
Rp7312
aa(lp7313
Vsolving
p7314
ag5
(g9
S'\x07b!\xd1\x1c\xa0\xb6?'
p7315
tp7316
Rp7317
aa(lp7318
Vmemory
p7319
ag5
(g9
S'\x07b!\xd1\x1c\xa0\xb6?'
p7320
tp7321
Rp7322
aa(lp7323
Vcognitive
p7324
ag5
(g9
S'\x07b!\xd1\x1c\xa0\xb6?'
p7325
tp7326
Rp7327
aa(lp7328
Vvideo
p7329
ag5
(g9
S's\x0f\xf4\xa3Hl\xb5?'
p7330
tp7331
Rp7332
aa(lp7333
Vskills
p7334
ag5
(g9
S's\x0f\xf4\xa3Hl\xb5?'
p7335
tp7336
Rp7337
aa(lp7338
Vrecorded
p7339
ag5
(g9
S's\x0f\xf4\xa3Hl\xb5?'
p7340
tp7341
Rp7342
aa(lp7343
Vimprove
p7344
ag5
(g9
S'%k\xde`\xe7\xe5\xb4?'
p7345
tp7346
Rp7347
aa(lp7348
Vattention
p7349
ag5
(g9
S'I\x0f\xbf\xaf\xe8\xe3\xb2?'
p7350
tp7351
Rp7352
aa(lp7353
Vcommunication
p7354
ag5
(g9
S'\xb7O\x87\xfb{?\xd4?'
p7355
tp7356
Rp7357
aa(lp7358
Vtreatment
p7359
ag5
(g9
S'-o\xdb\x97k\x84\xc0?'
p7360
tp7361
Rp7362
aa(lp7363
Vfeeding
p7364
ag5
(g9
S'\xd8\x84\x16h\x14\xc6\xbb?'
p7365
tp7366
Rp7367
aa(lp7368
Voral
p7369
ag5
(g9
S'\r\x96\xca\r\x90=\xba?'
p7370
tp7371
Rp7372
aa(lp7373
Vdevelopment
p7374
ag5
(g9
S'i\x97\x8b9\x19\xea\xa0?'
p7375
tp7376
Rp7377
aa(lp7378
Vlanguage
p7379
ag5
(g9
S'\x0b\x1bso\x1d\x88\xde?'
p7380
tp7381
Rp7382
aa(lp7383
Vprocessing
p7384
ag5
(g9
S'\xce\xf2o\xd6\xb7\xe8\xdc?'
p7385
tp7386
Rp7387
aa(lp7388
g6457
ag5
(g9
S'#\xe1b\xfc\x82#\xd8?'
p7389
tp7390
Rp7391
aa(lp7392
Vdisorder
p7393
ag5
(g9
S'\x11l\xc1\x03U\xf5\xc8?'
p7394
tp7395
Rp7396
aa(lp7397
Vcine
p7398
ag5
(g9
S'\xfd\x06\x97\xd4z\x13\xa4?'
p7399
tp7400
Rp7401
aa(lp7402
Vrehabilitation
p7403
ag5
(g9
S'\xa6\xc4J\x04\x18\x86\x9c?'
p7404
tp7405
Rp7406
aa(lp7407
Vtherapeutic
p7408
ag5
(g9
S'\xfe\x92\xdd\\\xc5\x01\x97?'
p7409
tp7410
Rp7411
aa(lp7412
g3994
ag5
(g9
S'\xfa\x9c(\xd7\x13\xca\x93?'
p7413
tp7414
Rp7415
aa(lp7416
Vrange
p7417
ag5
(g9
S'\x15\xf4S!^\x8b\x93?'
p7418
tp7419
Rp7420
aa(lp7421
g6690
ag5
(g9
S'"\x10\x9ff\xca\x1e\xd6?'
p7422
tp7423
Rp7424
aasS'ORAL SURGERY (DENTISTS ONLY)'
p7425
(lp7426
(lp7427
Vteeth
p7428
ag5
(g9
S'\xca#\xb8,\xf5\x12\xd5?'
p7429
tp7430
Rp7431
aa(lp7432
g723
ag5
(g9
S'\xb2$"?@"\xc3?'
p7433
tp7434
Rp7435
aa(lp7436
g1634
ag5
(g9
S'\x8b\xac\xc5o\x90\xf0\xc0?'
p7437
tp7438
Rp7439
aa(lp7440
Vxray
p7441
ag5
(g9
S'\xfd\xa6c<X\x05\xc0?'
p7442
tp7443
Rp7444
aa(lp7445
g21
ag5
(g9
S'y\x07\x0c\xc4!_\xbd?'
p7446
tp7447
Rp7448
aa(lp7449
Vmouth
p7450
ag5
(g9
S'c\x10\xba\xfe>\xa4\xb8?'
p7451
tp7452
Rp7453
aa(lp7454
g6819
ag5
(g9
S'\x90\x135~\x01?\xad?'
p7455
tp7456
Rp7457
aa(lp7458
g1624
ag5
(g9
S']%\xc4\x90\xd3c\xa9?'
p7459
tp7460
Rp7461
aa(lp7462
Vpreparation
p7463
ag5
(g9
S'+\xe0\xa3K\x97\xd1\xa2?'
p7464
tp7465
Rp7466
aa(lp7467
Vpathology
p7468
ag5
(g9
S'\x166\xc8\x1e\xe6\x11\xc0?'
p7469
tp7470
Rp7471
aa(lp7472
Vjaw
p7473
ag5
(g9
S'\xe3\xe7\x97\xa1\xc0\xe2\xbc?'
p7474
tp7475
Rp7476
aa(lp7477
Vexamination
p7478
ag5
(g9
S'\xe7\x8e\xe0\xbeI\xee\xb8?'
p7479
tp7480
Rp7481
aa(lp7482
Vmicroscope
p7483
ag5
(g9
S'\x9bM\xd0\xd6\xe5\x9d\xb7?'
p7484
tp7485
Rp7486
aa(lp7487
Vcomplexity
p7488
ag5
(g9
S'\x876\x90\xd9\xd6\xf2\xb3?'
p7489
tp7490
Rp7491
aa(lp7492
Vcyst
p7493
ag5
(g9
S'.3#\x87\x80\xbd\xad?'
p7494
tp7495
Rp7496
aa(lp7497
g2300
ag5
(g9
S'\x08\x98m\xe29\x8a\xad?'
p7498
tp7499
Rp7500
aa(lp7501
g1679
ag5
(g9
S'\x00.\x9b\x0c\xfb\xdd\xd8?'
p7502
tp7503
Rp7504
aa(lp7505
g1684
ag5
(g9
S'\t8\x01\x97N[\xd8?'
p7506
tp7507
Rp7508
aa(lp7509
g1689
ag5
(g9
S'\t8\x01\x97N[\xd8?'
p7510
tp7511
Rp7512
aa(lp7513
g2453
ag5
(g9
S'<\xaa\xa9\xeb\xd6\x9f\xd6?'
p7514
tp7515
Rp7516
aa(lp7517
g390
ag5
(g9
S'/\xec\x06\xf914\xd6?'
p7518
tp7519
Rp7520
aa(lp7521
g1698
ag5
(g9
S'\xfa\xc4\xffks9\xd0?'
p7522
tp7523
Rp7524
aa(lp7525
Vimpression
p7526
ag5
(g9
S'\xf1\xa2\x8f\xb9e\xd8\xb1?'
p7527
tp7528
Rp7529
aa(lp7530
Vcustom
p7531
ag5
(g9
S'Q\x8diV\xbd]\xb0?'
p7532
tp7533
Rp7534
aa(lp7535
Vouter
p7536
ag5
(g9
S"\xcfb\x9f\xc0'\xa2\xae?"
p7537
tp7538
Rp7539
aa(lp7540
Vprosthesis
p7541
ag5
(g9
S'\x9f\xc5.\xc0\xdd\xaf\xa9?'
p7542
tp7543
Rp7544
aa(lp7545
Vcheek
p7546
ag5
(g9
S'l\xbc\x8c\xc8Q\xd2\xa5?'
p7547
tp7548
Rp7549
aa(lp7550
Vsection
p7551
ag5
(g9
S'}\xe9\xd5\xfaG\xb3\xa1?'
p7552
tp7553
Rp7554
aa(lp7555
g6467
ag5
(g9
S'J\xcb\xed\x17\xc1\xb1\x9e?'
p7556
tp7557
Rp7558
aa(lp7559
g208
ag5
(g9
S']|a}]\xca\xd8?'
p7560
tp7561
Rp7562
aa(lp7563
g7161
ag5
(g9
S'\x00\x1aA\xfeq\xdf\xab?'
p7564
tp7565
Rp7566
aa(lp7567
Vprocedure
p7568
ag5
(g9
S'\xefg\x00X*\xba\xa0?'
p7569
tp7570
Rp7571
aa(lp7572
g2370
ag5
(g9
S'de\xb1\xfd\x9f\xed\x9a?'
p7573
tp7574
Rp7575
aa(lp7576
g2780
ag5
(g9
S'\x01&5\xae\xad4\x9a?'
p7577
tp7578
Rp7579
aa(lp7580
Voral
p7581
ag5
(g9
S'\x01&5\xae\xad4\x9a?'
p7582
tp7583
Rp7584
aasS'ENDOCRINOLOGY'
p7585
(lp7586
(lp7587
g992
ag5
(g9
S'p3\xb9\x0e\xff(\xbd?'
p7588
tp7589
Rp7590
aa(lp7591
Vhormone
p7592
ag5
(g9
S'\xfcYLV\xe8\x19\xbd?'
p7593
tp7594
Rp7595
aa(lp7596
g341
ag5
(g9
S'\x17XF-r\xd5\xb6?'
p7597
tp7598
Rp7599
aa(lp7600
g1006
ag5
(g9
S'\xce\xd0\xea=\xafT\xb2?'
p7601
tp7602
Rp7603
aa(lp7604
g51
ag5
(g9
S'\xe0\xd6\xd7\xdb0\xff\xd4?'
p7605
tp7606
Rp7607
aa(lp7608
g46
ag5
(g9
S'X\xe2\x02N\xc4\xe0\xd4?'
p7609
tp7610
Rp7611
aa(lp7612
g31
ag5
(g9
S'l\xb5\xb0\xdd4\xdd\xd4?'
p7613
tp7614
Rp7615
aa(lp7616
g41
ag5
(g9
S'\xc3\xda]W\xfay\xd2?'
p7617
tp7618
Rp7619
aa(lp7620
g56
ag5
(g9
S'0M\xdf\x82\x1ad\xcb?'
p7621
tp7622
Rp7623
aa(lp7624
Vneedle
p7625
ag5
(g9
S'Y\xd5+\x84\x95\xc1\xb2?'
p7626
tp7627
Rp7628
aa(lp7629
g4865
ag5
(g9
S',0^\xc1\xe0\xcc\xcf?'
p7630
tp7631
Rp7632
aa(lp7633
g2540
ag5
(g9
S'-\xcb\xd4X\x0b\x96\xc8?'
p7634
tp7635
Rp7636
aa(lp7637
g4582
ag5
(g9
S'_zb4H\xe4\xc0?'
p7638
tp7639
Rp7640
aa(lp7641
Vthyroid
p7642
ag5
(g9
S'J89\xb1Y\xa8\xb5?'
p7643
tp7644
Rp7645
aa(lp7646
g208
ag5
(g9
S'\xce\xcd\xdc@\xf5\x90\xdb?'
p7647
tp7648
Rp7649
aa(lp7650
g213
ag5
(g9
S"\xf1I\xd9*+'\xd9?"
p7651
tp7652
Rp7653
aa(lp7654
g1282
ag5
(g9
S'G\x9b\x17G\xc9\xce\xc0?'
p7655
tp7656
Rp7657
aa(lp7658
g916
ag5
(g9
S'\xfdKA\xdd\xadd\xc0?'
p7659
tp7660
Rp7661
aa(lp7662
g926
ag5
(g9
S'\x1aW\xec\xeb\x1e\x18\xc0?'
p7663
tp7664
Rp7665
aa(lp7666
g921
ag5
(g9
S'\x1c\xf6\xcbf\xd8\xd4\xbf?'
p7667
tp7668
Rp7669
aa(lp7670
g430
ag5
(g9
S'\x8diF\x12\xdf\xa8\xb1?'
p7671
tp7672
Rp7673
aa(lp7674
Vglucose
p7675
ag5
(g9
S'S{\xc8\xa9@S\xb1?'
p7676
tp7677
Rp7678
aasS'SLEEP MEDICINE'
p7679
(lp7680
(lp7681
g441
ag5
(g9
S',\xb7Mb\x90\xac\xd5?'
p7682
tp7683
Rp7684
aa(lp7685
g225
ag5
(g9
S'\x81\r\xcf\xe7\x97\xc2\xd4?'
p7686
tp7687
Rp7688
aa(lp7689
g699
ag5
(g9
S'}\x8d\x8f\xe5\xd2\x9e\xcc?'
p7690
tp7691
Rp7692
aa(lp7693
g704
ag5
(g9
S'}\x8d\x8f\xe5\xd2\x9e\xcc?'
p7694
tp7695
Rp7696
aa(lp7697
g709
ag5
(g9
S',\xb6\xc0\x97\x00S\xcc?'
p7698
tp7699
Rp7700
aa(lp7701
g450
ag5
(g9
S"'\xf4Q#\xd7\x0c\xc3?"
p7702
tp7703
Rp7704
aa(lp7705
g331
ag5
(g9
S"'\xf4Q#\xd7\x0c\xc3?"
p7706
tp7707
Rp7708
aa(lp7709
g465
ag5
(g9
S'\x90\xe9J\x88\xecS\xc1?'
p7710
tp7711
Rp7712
aa(lp7713
g455
ag5
(g9
S'\xef\xb3\xf3\x14Hp\xc0?'
p7714
tp7715
Rp7716
aa(lp7717
g269
ag5
(g9
S'Oa\x17\x0f\x81\x88\xc4?'
p7718
tp7719
Rp7720
aa(lp7721
g148
ag5
(g9
S'G\xd4>\xe3\x8b9\xbf?'
p7722
tp7723
Rp7724
aa(lp7725
g1923
ag5
(g9
S'\xd6\xee\xd2\xe1\xe2\xfa\xbd?'
p7726
tp7727
Rp7728
aa(lp7729
g390
ag5
(g9
S'\x81\n\x0f\xa8\xd2^\xd4?'
p7730
tp7731
Rp7732
aa(lp7733
Vlab
p7734
ag5
(g9
S'\xcd2R\x89\xda\xa1\xd0?'
p7735
tp7736
Rp7737
aa(lp7738
g3540
ag5
(g9
S'\x87\xb6\x998\xad\xc0\xc4?'
p7739
tp7740
Rp7741
aa(lp7742
g3545
ag5
(g9
S'\x87\xb6\x998\xad\xc0\xc4?'
p7743
tp7744
Rp7745
aa(lp7746
Vbreathing
p7747
ag5
(g9
S'\xb4QO\x97\x9c&\xc2?'
p7748
tp7749
Rp7750
aa(lp7751
g892
ag5
(g9
S'`\xf7\x1eM?\x05\xc2?'
p7752
tp7753
Rp7754
aa(lp7755
g3157
ag5
(g9
S'7@\xa9>\xc5\xa8\xe1?'
p7756
tp7757
Rp7758
aa(lp7759
g3183
ag5
(g9
S'\xe1\x8c:c\xd3\x9c\xc7?'
p7760
tp7761
Rp7762
aa(lp7763
g3203
ag5
(g9
S'O\xaf\xfe\x19\x96\x88\xc4?'
p7764
tp7765
Rp7766
aa(lp7767
g3208
ag5
(g9
S'O\xaf\xfe\x19\x96\x88\xc4?'
p7768
tp7769
Rp7770
aa(lp7771
g3213
ag5
(g9
S'O\xaf\xfe\x19\x96\x88\xc4?'
p7772
tp7773
Rp7774
aa(lp7775
g3218
ag5
(g9
S'W\xaf7&+s\xc3?'
p7776
tp7777
Rp7778
aa(lp7779
g3198
ag5
(g9
S'\x0b\x1a\xb7d\x02\xea\xc1?'
p7780
tp7781
Rp7782
aa(lp7783
g3228
ag5
(g9
S'h\xe5\x92\xad\xcb(\xc0?'
p7784
tp7785
Rp7786
aa(lp7787
g319
ag5
(g9
S'\xd1\xf5#A\xe1g\xb4?'
p7788
tp7789
Rp7790
aasS'AMBULANCE SERVICE SUPPLIER'
p7791
(lp7792
(lp7793
Vtransport
p7794
ag5
(g9
S'(P\n\xed\xe5j\xe1?'
p7795
tp7796
Rp7797
aa(lp7798
Vnonemergency
p7799
ag5
(g9
S'\xa6\xe6v\xae<\xde\xcb?'
p7800
tp7801
Rp7802
aa(lp7803
Vbls
p7804
ag5
(g9
S'\xa6\xe6v\xae<\xde\xcb?'
p7805
tp7806
Rp7807
aa(lp7808
Vspecialty
p7809
ag5
(g9
S'\xa6\xe6v\xae<\xde\xbb?'
p7810
tp7811
Rp7812
aa(lp7813
Vsct
p7814
ag5
(g9
S'\xa6\xe6v\xae<\xde\xbb?'
p7815
tp7816
Rp7817
aa(lp7818
g455
ag5
(g9
S'\xa5\xbd\xc3\nsH\x9c?'
p7819
tp7820
Rp7821
aa(lp7822
Vambulance
p7823
ag5
(g9
S'x\xb8~\xcb\xa1D\xe0?'
p7824
tp7825
Rp7826
aa(lp7827
Vsupport
p7828
ag5
(g9
S'\x0fAIw-\xc3\xd2?'
p7829
tp7830
Rp7831
aa(lp7832
Vlife
p7833
ag5
(g9
S'\xdd\xed\xc0}\xcd[\xd0?'
p7834
tp7835
Rp7836
aa(lp7837
g852
ag5
(g9
S'\x03\xf6\xc9\x18\x9e\xb2\xc6?'
p7838
tp7839
Rp7840
aa(lp7841
Valsemergency
p7842
ag5
(g9
S'JK\xfe\xb9\xd7\xb0\xc5?'
p7843
tp7844
Rp7845
aa(lp7846
Vadvanced
p7847
ag5
(g9
S'JK\xfe\xb9\xd7\xb0\xc5?'
p7848
tp7849
Rp7850
aa(lp7851
g3722
ag5
(g9
S'\xce\x96\x11X\x16\xe5\xc2?'
p7852
tp7853
Rp7854
aa(lp7855
g274
ag5
(g9
S'f\x88\xac\xa2!\x8c\xac?'
p7856
tp7857
Rp7858
aa(lp7859
Vstatute
p7860
ag5
(g9
S'\xf8\xf6\x93\x89Q\x96\xd6?'
p7861
tp7862
Rp7863
aa(lp7864
Vmileage
p7865
ag5
(g9
S'\xf8\xf6\x93\x89Q\x96\xd6?'
p7866
tp7867
Rp7868
aa(lp7869
Vmile
p7870
ag5
(g9
S'\xf8\xf6\x93\x89Q\x96\xd6?'
p7871
tp7872
Rp7873
aa(lp7874
Vground
p7875
ag5
(g9
S'\xf8\xf6\x93\x89Q\x96\xd6?'
p7876
tp7877
Rp7878
aa(lp7879
Vblsemergency
p7880
ag5
(g9
S'\xf8\xf6\x93\x89Q\x96\xd6?'
p7881
tp7882
Rp7883
aa(lp7884
Vbasic
p7885
ag5
(g9
S'\xc5\xfc\x06g\xf5\xaf\xc2?'
p7886
tp7887
Rp7888
aasS'PLASTIC AND RECONSTRUCTIVE SURGERY'
p7889
(lp7890
(lp7891
g6088
ag5
(g9
S'\xb4"\xbb\xe0[\x1b\xc4?'
p7892
tp7893
Rp7894
aa(lp7895
g6854
ag5
(g9
S'\xb7E\xaaW\x12\x13\xdd?'
p7896
tp7897
Rp7898
aa(lp7899
Vgrowth
p7900
ag5
(g9
S'\xb5\xeenv\xaa\n\xc5?'
p7901
tp7902
Rp7903
aa(lp7904
Vrepair
p7905
ag5
(g9
S'\xb7\xdfO\x02(\xf5\xc3?'
p7906
tp7907
Rp7908
aa(lp7909
Vmouth
p7910
ag5
(g9
S'j\xc4u\x16\x80K\xc2?'
p7911
tp7912
Rp7913
aa(lp7914
Vskin
p7915
ag5
(g9
S'\x98\xfe\x18}\xb8\x17\xbb?'
p7916
tp7917
Rp7918
aa(lp7919
Vlips
p7920
ag5
(g9
S'\xac3\xba\xb2\xcd4\xc8?'
p7921
tp7922
Rp7923
aa(lp7924
Vears
p7925
ag5
(g9
S'\x02\xb9k\x92r\x03\xc5?'
p7926
tp7927
Rp7928
aa(lp7929
Vwound
p7930
ag5
(g9
S'\xefq>Q\xbaS\xc4?'
p7931
tp7932
Rp7933
aa(lp7934
g1698
ag5
(g9
S'\x1e\xcfjap%\xc1?'
p7935
tp7936
Rp7937
aa(lp7938
g5939
ag5
(g9
S'\x11\x01\x7f:f\x18\xbe?'
p7939
tp7940
Rp7941
aa(lp7942
g76
ag5
(g9
S'\x92\xb5\xc7~o\xf1\xba?'
p7943
tp7944
Rp7945
aa(lp7946
g208
ag5
(g9
S'\x90.\x00\xbfo\x06\xd4?'
p7947
tp7948
Rp7949
aa(lp7950
g1578
ag5
(g9
S'S\x85\xb5\x85\x9d\xb4\xd2?'
p7951
tp7952
Rp7953
aa(lp7954
g213
ag5
(g9
S'E"3\xdb\x05\xeb\xd1?'
p7955
tp7956
Rp7957
aa(lp7958
g2235
ag5
(g9
S'\xfcR"0\xec\xe9\xd1?'
p7959
tp7960
Rp7961
aa(lp7962
g2923
ag5
(g9
S'\xfbm:x\xcb\x8a\xd1?'
p7963
tp7964
Rp7965
aa(lp7966
g1458
ag5
(g9
S'\xd8+S\xb2JT\xd0?'
p7967
tp7968
Rp7969
aa(lp7970
Veyelids
p7971
ag5
(g9
S'\x88\x12\xea\x1d\xf0\xc8\xc7?'
p7972
tp7973
Rp7974
aa(lp7975
g2244
ag5
(g9
S'\xaf\xfb\xe8>m\xba\xc3?'
p7976
tp7977
Rp7978
aa(lp7979
Vnose
p7980
ag5
(g9
S'\xe9A\x82K\xdc\x9f\xc3?'
p7981
tp7982
Rp7983
aa(lp7984
Vmalignant
p7985
ag5
(g9
S'`{t\x01\xbc\x9b\xbe?'
p7986
tp7987
Rp7988
aasS'UROLOGY'
p7989
(lp7990
(lp7991
g699
ag5
(g9
S'o2\x12\xf1\x0c4\xca?'
p7992
tp7993
Rp7994
aa(lp7995
g704
ag5
(g9
S'\x94\x94\xa0\xd3\x85\t\xca?'
p7996
tp7997
Rp7998
aa(lp7999
g709
ag5
(g9
S'\t\xf9\xebr\x8b\xc4\xc9?'
p8000
tp8001
Rp8002
aa(lp8003
g718
ag5
(g9
S'\xe4ca\xa4Rz\xc7?'
p8004
tp8005
Rp8006
aa(lp8007
g1649
ag5
(g9
S'\xf2k.\\Z0\xc2?'
p8008
tp8009
Rp8010
aa(lp8011
g723
ag5
(g9
S'=\x0c\xdb\xe2\x1b\x97\xc0?'
p8012
tp8013
Rp8014
aa(lp8015
g2280
ag5
(g9
S'\x13\xa5\x89"\x12v\xbb?'
p8016
tp8017
Rp8018
aa(lp8019
Vultrasound
p8020
ag5
(g9
S'8L\xc1G\x9c\xe1\xb8?'
p8021
tp8022
Rp8023
aa(lp8024
g341
ag5
(g9
S'(\xbe\xfa/t\xdf\xb6?'
p8025
tp8026
Rp8027
aa(lp8028
Vinstillation
p8029
ag5
(g9
S"\x90\x82|\x14b'\xb5?"
p8030
tp8031
Rp8032
aa(lp8033
Vbladder
p8034
ag5
(g9
S'H\xbe\xab\xa9gy\xe3?'
p8035
tp8036
Rp8037
aa(lp8038
Vcanal
p8039
ag5
(g9
S'\xba\x91\x94\xa4L\x1b\xc5?'
p8040
tp8041
Rp8042
aa(lp8043
Vvoiding
p8044
ag5
(g9
S'\x9c\xa7\xd5\xd7\xd3|\xbf?'
p8045
tp8046
Rp8047
aa(lp8048
Velectronic
p8049
ag5
(g9
S'\xad\x90\x03\x94\x0bJ\xb4?'
p8050
tp8051
Rp8052
aa(lp8053
Vurethra
p8054
ag5
(g9
S'\x8c\xcf\xcf\xff\xd1\xf6\xd0?'
p8055
tp8056
Rp8057
aa(lp8058
Vprostate
p8059
ag5
(g9
S'\xfc\x9d\xfd\x1c\x92\xd0\xbb?'
p8060
tp8061
Rp8062
aa(lp8063
Vureter
p8064
ag5
(g9
S'\xd59::1A\xb9?'
p8065
tp8066
Rp8067
aa(lp8068
Vduct
p8069
ag5
(g9
S'&\xba\xb7N*\xf7\xb3?'
p8070
tp8071
Rp8072
aa(lp8073
g208
ag5
(g9
S'W\x8c\xe2\x86\xaa&\xd1?'
p8074
tp8075
Rp8076
aa(lp8077
g213
ag5
(g9
S'\xd5\xe0Z\x97[\xee\xce?'
p8078
tp8079
Rp8080
aa(lp8081
g6672
ag5
(g9
S'D+ \xd9\x08\xf3\xc3?'
p8082
tp8083
Rp8084
aa(lp8085
g4078
ag5
(g9
S't\xc0d\xde\xb3P\xc1?'
p8086
tp8087
Rp8088
aa(lp8089
g1291
ag5
(g9
S'D\xca\xa8a\xba\x9e\xb4?'
p8090
tp8091
Rp8092
aa(lp8093
g319
ag5
(g9
S'\xce8\xbaga\xb1\xb3?'
p8094
tp8095
Rp8096
aasS'MAXILLOFACIAL SURGERY'
p8097
(lp8098
(lp8099
g992
ag5
(g9
S'\x87\xc7b\xc96\xf7\xd1?'
p8100
tp8101
Rp8102
aa(lp8103
Vjaw
p8104
ag5
(g9
S'\x8e*\xf9\xf5\xdb\x8d\xb2?'
p8105
tp8106
Rp8107
aa(lp8108
g3939
ag5
(g9
S'I\xfe8\xbbz\x04\xa2?'
p8109
tp8110
Rp8111
aa(lp8112
g2194
ag5
(g9
S'\xa1\x8dFm\xed\x99\xa1?'
p8113
tp8114
Rp8115
aa(lp8116
g21
ag5
(g9
S'\xd1\xcf\xe3\x1an\xcd\x9f?'
p8117
tp8118
Rp8119
aa(lp8120
Vwindpipe
p8121
ag5
(g9
S'>V\xe8y\x01Y\x9e?'
p8122
tp8123
Rp8124
aa(lp8125
g465
ag5
(g9
S'\x89a+\x10o\xdb\x9c?'
p8126
tp8127
Rp8128
aa(lp8129
g450
ag5
(g9
S'\xaf7\xa0v\x8c\x8d\x9c?'
p8130
tp8131
Rp8132
aa(lp8133
g331
ag5
(g9
S'\xaf7\xa0v\x8c\x8d\x9c?'
p8134
tp8135
Rp8136
aa(lp8137
g1725
ag5
(g9
S'\x10\x14\xf2\xa6_\x02\x9c?'
p8138
tp8139
Rp8140
aa(lp8141
g26
ag5
(g9
S'[N\xbd\x93\xcah\xd9?'
p8142
tp8143
Rp8144
aa(lp8145
g46
ag5
(g9
S'\x9f\x92\xd3W\xfd;\xd9?'
p8146
tp8147
Rp8148
aa(lp8149
g31
ag5
(g9
S'$\xe4\x18\xc4\x12\xfa\xd8?'
p8150
tp8151
Rp8152
aa(lp8153
g51
ag5
(g9
S'$\xe4\x18\xc4\x12\xfa\xd8?'
p8154
tp8155
Rp8156
aa(lp8157
g36
ag5
(g9
S'?R\x0f\x10\xefX\xd7?'
p8158
tp8159
Rp8160
aa(lp8161
g56
ag5
(g9
S'\x8c\x16\xd9\x1b\xf1\t\xc2?'
p8162
tp8163
Rp8164
aa(lp8165
g6447
ag5
(g9
S'\xe6\xf1Ya\xc4\xb2\x9d?'
p8166
tp8167
Rp8168
aa(lp8169
Vbiopsy
p8170
ag5
(g9
S'\xf5\xa0\xff\x83\x14\xa6\x97?'
p8171
tp8172
Rp8173
aa(lp8174
Vmicrovascular
p8175
ag5
(g9
S'\xc4tl\xfa \x10\x96?'
p8176
tp8177
Rp8178
aa(lp8179
Vimpression
p8180
ag5
(g9
S'\xb3#\xe5\xca\xe6=\x94?'
p8181
tp8182
Rp8183
aa(lp8184
V20
p8185
ag5
(g9
S'\xb3#\xe5\xca\xe6=\x94?'
p8186
tp8187
Rp8188
aa(lp8189
Vteeth
p8190
ag5
(g9
S'\xaej\xf0\x82y6\xcf?'
p8191
tp8192
Rp8193
aa(lp8194
g1409
ag5
(g9
S'J\xacu.\xde\xce\xb8?'
p8195
tp8196
Rp8197
aa(lp8198
g2733
ag5
(g9
S'\xcaJ<\x0c\x0f\x88\xb8?'
p8199
tp8200
Rp8201
aa(lp8202
Vmouth
p8203
ag5
(g9
S'\xaak\x81\xecZ\x9a\xb3?'
p8204
tp8205
Rp8206
aa(lp8207
Vgrowth
p8208
ag5
(g9
S'\xeb\xecy\xc2\x82\xcc\xa0?'
p8209
tp8210
Rp8211
aa(lp8212
g76
ag5
(g9
S'\xfd\xd5\x86R\xec\x0c\x99?'
p8213
tp8214
Rp8215
aa(lp8216
Vrecognition
p8217
ag5
(g9
S'X\x00\x11\x0c\xa5\x12\x93?'
p8218
tp8219
Rp8220
aa(lp8221
Vspeech
p8222
ag5
(g9
S'T\xd7n\x19\xb7\x12\x92?'
p8223
tp8224
Rp8225
aa(lp8226
g7920
ag5
(g9
S'\n\xd3P?.\xa1\x91?'
p8227
tp8228
Rp8229
aa(lp8230
g6457
ag5
(g9
S'%\x9bw\x84{7\x91?'
p8231
tp8232
Rp8233
aa(lp8234
Vloss
p8235
ag5
(g9
S'\xfa\x1d\x1d\xc4\x9b\xd4\x90?'
p8236
tp8237
Rp8238
aa(lp8239
g1458
ag5
(g9
S'1*q\xd7G\xcf\xd6?'
p8240
tp8241
Rp8242
aa(lp8243
Vsedation
p8244
ag5
(g9
S'c=\x9a\nA\xbb\xb0?'
p8245
tp8246
Rp8247
aa(lp8248
Vperforming
p8249
ag5
(g9
S'c=\x9a\nA\xbb\xb0?'
p8250
tp8251
Rp8252
aa(lp8253
Vmoderate
p8254
ag5
(g9
S'\x9ett1cu\xaa?'
p8255
tp8256
Rp8257
aa(lp8258
g2913
ag5
(g9
S'\x95\xf9G\xd2\xfb\xf1\xa3?'
p8259
tp8260
Rp8261
aa(lp8262
g3035
ag5
(g9
S'\x95\xf9G\xd2\xfb\xf1\xa3?'
p8263
tp8264
Rp8265
aa(lp8266
g7568
ag5
(g9
S'\xb8\x83P\xcd\xf8\xb8\xa3?'
p8267
tp8268
Rp8269
aa(lp8270
g4661
ag5
(g9
S'\x88\xd3\x13\x1f\x16K\xa1?'
p8271
tp8272
Rp8273
aa(lp8274
g3188
ag5
(g9
S'xZ\xa5\xb7)#\xa0?'
p8275
tp8276
Rp8277
aasS'UNKNOWN PHYSICIAN SPECIALTY CODE'
p8278
(lp8279
(lp8280
Vscan
p8281
ag5
(g9
S'\x0e\x05\xda%\x8e\x03\xd5?'
p8282
tp8283
Rp8284
aa(lp8285
g1715
ag5
(g9
S'Y\x949\xef\xd9\xf2\xd0?'
p8286
tp8287
Rp8288
aa(lp8289
Vbladder
p8290
ag5
(g9
S'\xdf\x12\x0cL\xda<\xd0?'
p8291
tp8292
Rp8293
aa(lp8294
Vmri
p8295
ag5
(g9
S'\xc8\xee\xc5\xfd0\xdb\xcb?'
p8296
tp8297
Rp8298
aa(lp8299
g3687
ag5
(g9
S'a\xee\xfb\x8a"\xae\xca?'
p8300
tp8301
Rp8302
aa(lp8303
Vcanal
p8304
ag5
(g9
S'7\x1d\x87Z\xe6#\xc9?'
p8305
tp8306
Rp8307
aa(lp8308
g1720
ag5
(g9
S't\xc3\xe6\x80|\x13\xc4?'
p8309
tp8310
Rp8311
aa(lp8312
g1725
ag5
(g9
S'\x16K\xa3\xa9\x92\xe7\xc2?'
p8313
tp8314
Rp8315
aa(lp8316
g1644
ag5
(g9
S'b=\xde\xaf\xd3\xad\xc2?'
p8317
tp8318
Rp8319
aa(lp8320
g943
ag5
(g9
S'\xd3\t\t\xf9O\xd1\xc1?'
p8321
tp8322
Rp8323
aa(lp8324
g1744
ag5
(g9
S'\xae/8\xd1\x18\xbf\xc1?'
p8325
tp8326
Rp8327
aa(lp8328
g1754
ag5
(g9
S'\xfd\xc3\x87\xf7\x9b_\xc1?'
p8329
tp8330
Rp8331
aa(lp8332
Vct
p8333
ag5
(g9
S'H\x99\x0f\xba\xfd\xfe\xc0?'
p8334
tp8335
Rp8336
aa(lp8337
Vcontrast
p8338
ag5
(g9
S'@\xee\xfd\x83\xb1N\xc0?'
p8339
tp8340
Rp8341
aa(lp8342
g36
ag5
(g9
S'O\xa3\xaf8\x06\x1d\xdc?'
p8343
tp8344
Rp8345
aa(lp8346
g728
ag5
(g9
S'+\xc1\xdd\x02$\xc6\xc4?'
p8347
tp8348
Rp8349
aa(lp8350
g1016
ag5
(g9
S'\xa9\x88l\nNL\xbe?'
p8351
tp8352
Rp8353
aa(lp8354
g557
ag5
(g9
S'!\xf7\x01\xfa\x00\xfc\xbd?'
p8355
tp8356
Rp8357
aa(lp8358
g562
ag5
(g9
S'N\xa9ns\x00\xc8\xbc?'
p8359
tp8360
Rp8361
aa(lp8362
g1026
ag5
(g9
S'T\xef\x14\xcdH\xde\xb5?'
p8363
tp8364
Rp8365
aa(lp8366
g538
ag5
(g9
S'O\xbb\x95sj3\xb4?'
p8367
tp8368
Rp8369
aa(lp8370
g872
ag5
(g9
S'A3\xa3\xd1}x\xd9?'
p8371
tp8372
Rp8373
aa(lp8374
g405
ag5
(g9
S'\xd6\x1eI\x8c\x00\xc2\xd5?'
p8375
tp8376
Rp8377
aa(lp8378
g400
ag5
(g9
S'\xb7\xfa\xfe\x867\x86\xd5?'
p8379
tp8380
Rp8381
aa(lp8382
g877
ag5
(g9
S'.\x9fd_=\x11\xd5?'
p8383
tp8384
Rp8385
aa(lp8386
g395
ag5
(g9
S'\xbd\xe3\x80\xe2\x8e\x9f\xd4?'
p8387
tp8388
Rp8389
aa(lp8390
V20
p8391
ag5
(g9
S'L|m!0\x11\xc9?'
p8392
tp8393
Rp8394
aa(lp8395
g882
ag5
(g9
S'qW\x1c1\xca:\xc8?'
p8396
tp8397
Rp8398
aa(lp8399
Vtissue
p8400
ag5
(g9
S'v\x8c\x15\x95\x8c\x98\xc1?'
p8401
tp8402
Rp8403
aa(lp8404
g76
ag5
(g9
S'v\x8c\x15\x95\x8c\x98\xc1?'
p8405
tp8406
Rp8407
aa(lp8408
Vinitial
p8409
ag5
(g9
S'\x07?\x1a\xef\x1dS\xc0?'
p8410
tp8411
Rp8412
aa(lp8413
Vwounds
p8414
ag5
(g9
S'y\x83{\xba\x19\xde\xbc?'
p8415
tp8416
Rp8417
aa(lp8418
Vcm
p8419
ag5
(g9
S'y\x83{\xba\x19\xde\xbc?'
p8420
tp8421
Rp8422
aa(lp8423
Vsq
p8424
ag5
(g9
S'7\xaeh\x8d\x1a \xbb?'
p8425
tp8426
Rp8427
aa(lp8428
Voxygen
p8429
ag5
(g9
S'\x00\xf7X\x11\xe4\xf5\xb9?'
p8430
tp8431
Rp8432
aa(lp8433
Vchamber
p8434
ag5
(g9
S'\xfd\xacl\x1b\xe9\xe4\xb8?'
p8435
tp8436
Rp8437
aa(lp8438
g1458
ag5
(g9
S'\xb3)\x13\x1d\xd7\xc8\xd5?'
p8439
tp8440
Rp8441
aa(lp8442
g2141
ag5
(g9
S'\x0b\x86\xa3\xc2\xbc\x17\xd1?'
p8443
tp8444
Rp8445
aa(lp8446
g3450
ag5
(g9
S'\x0b\x86\xa3\xc2\xbc\x17\xd1?'
p8447
tp8448
Rp8449
aa(lp8450
g3455
ag5
(g9
S'\xdb\x16\xc2\xfbH\xc7\xd0?'
p8451
tp8452
Rp8453
aa(lp8454
g1578
ag5
(g9
S'\xe4)a\xc0\xcaH\xd0?'
p8455
tp8456
Rp8457
aa(lp8458
g2235
ag5
(g9
S'\xe4)a\xc0\xcaH\xd0?'
p8459
tp8460
Rp8461
aa(lp8462
g2923
ag5
(g9
S'q\x1f\xb6B\xa2\xe4\xcf?'
p8463
tp8464
Rp8465
aa(lp8466
g2244
ag5
(g9
S'\xd6\xbe\x91 0m\xc8?'
p8467
tp8468
Rp8469
aa(lp8470
Vvision
p8471
ag5
(g9
S'q>\x11i\xc2\x9c\xc7?'
p8472
tp8473
Rp8474
aa(lp8475
Vdaylight
p8476
ag5
(g9
S'q>\x11i\xc2\x9c\xc7?'
p8477
tp8478
Rp8479
aa(lp8480
Vconditions
p8481
ag5
(g9
S'q>\x11i\xc2\x9c\xc7?'
p8482
tp8483
Rp8484
aa(lp8485
Vfield
p8486
ag5
(g9
S'\x93\x16\xfb\x19\x8b\xdf\xc4?'
p8487
tp8488
Rp8489
aa(lp8490
g3460
ag5
(g9
S'2\x169\\S\x00\xc4?'
p8491
tp8492
Rp8493
aa(lp8494
g324
ag5
(g9
S']\x8d\xce\xb5\xa6\x82\xb2?'
p8495
tp8496
Rp8497
aasS'ADDICTION MEDICINE'
p8498
(lp8499
(lp8500
g718
ag5
(g9
S'G\x9cTQ\x1f\xef\xd6?'
p8501
tp8502
Rp8503
aa(lp8504
g699
ag5
(g9
S'(\x89\xe9\x8fD\xc3\xd4?'
p8505
tp8506
Rp8507
aa(lp8508
g704
ag5
(g9
S'(\x89\xe9\x8fD\xc3\xd4?'
p8509
tp8510
Rp8511
aa(lp8512
g709
ag5
(g9
S'\xda\xf0\x81KC\x8c\xd4?'
p8513
tp8514
Rp8515
aa(lp8516
g723
ag5
(g9
S'\x03X\xec\xfd\xdb*\xd2?'
p8517
tp8518
Rp8519
aa(lp8520
Vdrug
p8521
ag5
(g9
S'P\xd3\xbb=\xf9B\xcb?'
p8522
tp8523
Rp8524
aa(lp8525
g2596
ag5
(g9
S'H\x9bZ%\xb7\x93\xc7?'
p8526
tp8527
Rp8528
aa(lp8529
Vwaived
p8530
ag5
(g9
S'\xbd\xe1(\xe8\x84\x8e\xc4?'
p8531
tp8532
Rp8533
aa(lp8534
Vencounter
p8535
ag5
(g9
S'\xbd\xe1(\xe8\x84\x8e\xc4?'
p8536
tp8537
Rp8538
aa(lp8539
Vclia
p8540
ag5
(g9
S'\xbd\xe1(\xe8\x84\x8e\xc4?'
p8541
tp8542
Rp8543
aa(lp8544
Vclasses
p8545
ag5
(g9
S'\xbd\xe1(\xe8\x84\x8e\xc4?'
p8546
tp8547
Rp8548
aa(lp8549
Vchromatographic
p8550
ag5
(g9
S'\xbd\xe1(\xe8\x84\x8e\xc4?'
p8551
tp8552
Rp8553
aa(lp8554
Vnumber
p8555
ag5
(g9
S'W{\xc1)\x83\xdf\xc3?'
p8556
tp8557
Rp8558
aa(lp8559
Vscreen
p8560
ag5
(g9
S'\xc4\xe1\xce\x18\xca\xa1\xc0?'
p8561
tp8562
Rp8563
aa(lp8564
g5281
ag5
(g9
S'\xea\x7fU\x13N\xf7\xbf?'
p8565
tp8566
Rp8567
aa(lp8568
Vmoderate
p8569
ag5
(g9
S'"\x99\x0b\x86\x81\xc2\xbe?'
p8570
tp8571
Rp8572
aa(lp8573
V15
p8574
ag5
(g9
S'J0\x9av\x8b\xf0\xbd?'
p8575
tp8576
Rp8577
aa(lp8578
g992
ag5
(g9
S'\x16^\xca\xe0e3\xa5?'
p8579
tp8580
Rp8581
aa(lp8582
g274
ag5
(g9
S']H\x9b$\x87K\xd2?'
p8583
tp8584
Rp8585
aa(lp8586
Vhormone
p8587
ag5
(g9
S'\xf3/\xd2$\xf2\x16\xcb?'
p8588
tp8589
Rp8590
aa(lp8591
g269
ag5
(g9
S'K\xc4\x107<<\xc3?'
p8592
tp8593
Rp8594
aa(lp8595
Vreproductive
p8596
ag5
(g9
S'n\x19^\rv\x0b\xbd?'
p8597
tp8598
Rp8599
aa(lp8600
Vthyroid
p8601
ag5
(g9
S'\x82\x80b\x7f\x15\xd7\xb6?'
p8602
tp8603
Rp8604
aa(lp8605
g2453
ag5
(g9
S'\xef\xcb\x19\xe3-\r\xe0?'
p8606
tp8607
Rp8608
aa(lp8609
g877
ag5
(g9
S'B\xec\x92U\xbd\x92\xd4?'
p8610
tp8611
Rp8612
aa(lp8613
g400
ag5
(g9
S'"\xf2\xe9P\rg\xd3?'
p8614
tp8615
Rp8616
aa(lp8617
g405
ag5
(g9
S'\x9f\xf5+\xf5\xd3\r\xcf?'
p8618
tp8619
Rp8620
aa(lp8621
g395
ag5
(g9
S'\x10(6 Jo\xcd?'
p8622
tp8623
Rp8624
aa(lp8625
g882
ag5
(g9
S"'l\xe6L\xc0\xb7\xc3?"
p8626
tp8627
Rp8628
aa(lp8629
g8409
ag5
(g9
S'\xe6\xda\xa7\xc1n\x97\xbb?'
p8630
tp8631
Rp8632
aa(lp8633
g1573
ag5
(g9
S'\x94"_$\x92\xc5\xb7?'
p8634
tp8635
Rp8636
aa(lp8637
Vmanagement
p8638
ag5
(g9
S'\x9a\xa8Q\xa8\xf1\x9c\xb3?'
p8639
tp8640
Rp8641
aa(lp8642
g2981
ag5
(g9
S'\xdc\xbf+}\x87\x03\xa9?'
p8643
tp8644
Rp8645
aa(lp8646
g887
ag5
(g9
S'K8I\x88\x00\xa0\xa7?'
p8647
tp8648
Rp8649
aa(lp8650
g3433
ag5
(g9
S'\x81\xa9\xed8\x89}\xa7?'
p8651
tp8652
Rp8653
aa(lp8654
g208
ag5
(g9
S'\x9c}R\x12u8\xdc?'
p8655
tp8656
Rp8657
aa(lp8658
Vvalerate
p8659
ag5
(g9
S'\xa7\x06\x97\xff\xdd&\xba?'
p8660
tp8661
Rp8662
aa(lp8663
Vestradiol
p8664
ag5
(g9
S'7K\x8c\x14\xa8\x16\xb5?'
p8665
tp8666
Rp8667
aa(lp8668
Vtuberculosis
p8669
ag5
(g9
S'\xcf\x87\x1c\x8b\xd1J\xb3?'
p8670
tp8671
Rp8672
aa(lp8673
g3465
ag5
(g9
S"\xf9\xdc'\xd0\xbd\x1b\xb1?"
p8674
tp8675
Rp8676
aa(lp8677
g2141
ag5
(g9
S'\xd4\x9f\xefI\xa1\x98\xaf?'
p8678
tp8679
Rp8680
aa(lp8681
g3450
ag5
(g9
S'\xd4\x9f\xefI\xa1\x98\xaf?'
p8682
tp8683
Rp8684
aasS'CRITICAL CARE (INTENSIVISTS)'
p8685
(lp8686
(lp8687
g4531
ag5
(g9
S'i\x1a}\x15M\xd2\xc3?'
p8688
tp8689
Rp8690
aa(lp8691
g1649
ag5
(g9
S'\xbb\x13|+\xd9w\xba?'
p8692
tp8693
Rp8694
aa(lp8695
g346
ag5
(g9
S'=\x04qX\x8c\x87\xb8?'
p8696
tp8697
Rp8698
aa(lp8699
g475
ag5
(g9
S'!3\xaa\xe87\x1f\xb7?'
p8700
tp8701
Rp8702
aa(lp8703
g36
ag5
(g9
S'\x818\xa2\x14\x8d6\xda?'
p8704
tp8705
Rp8706
aa(lp8707
g26
ag5
(g9
S'\xb4:/*=g\xd5?'
p8708
tp8709
Rp8710
aa(lp8711
g41
ag5
(g9
S'*\x1b\x96\x8e\xc1\xe6\xcb?'
p8712
tp8713
Rp8714
aa(lp8715
g31
ag5
(g9
S'\x9e\xf1c("\xf5\xc0?'
p8716
tp8717
Rp8718
aa(lp8719
g46
ag5
(g9
S'\xe6\x8c\x1e\xb2\xbf\xfa\xbb?'
p8720
tp8721
Rp8722
aa(lp8723
g51
ag5
(g9
S'\xd5\xa2\xcdd\xa9\xb1\xbb?'
p8724
tp8725
Rp8726
aa(lp8727
g4836
ag5
(g9
S'\x9f\xc1s\x0b|\xd7\xb5?'
p8728
tp8729
Rp8730
aa(lp8731
g882
ag5
(g9
S'S\xc2\xf3\xe7\xdc\xff\xc4?'
p8732
tp8733
Rp8734
aa(lp8735
Vcatheter
p8736
ag5
(g9
S'{\x8d\xd9a\xbd\xc0\xb6?'
p8737
tp8738
Rp8739
aa(lp8740
g921
ag5
(g9
S'4L\x92w\x14\xdc\xd6?'
p8741
tp8742
Rp8743
aa(lp8744
g916
ag5
(g9
S'}E\x97g:\xfb\xd0?'
p8745
tp8746
Rp8747
aa(lp8748
g1282
ag5
(g9
S':F\xc98\x13\xd1\xd0?'
p8749
tp8750
Rp8751
aa(lp8752
g926
ag5
(g9
S'k\xadm\xf7/\x8c\xcf?'
p8753
tp8754
Rp8755
aa(lp8756
g6026
ag5
(g9
S'n/\x9a\xd7\xb2\x18\xc7?'
p8757
tp8758
Rp8759
aa(lp8760
g6031
ag5
(g9
S'n/\x9a\xd7\xb2\x18\xc7?'
p8761
tp8762
Rp8763
aa(lp8764
g6036
ag5
(g9
S'n/\x9a\xd7\xb2\x18\xc7?'
p8765
tp8766
Rp8767
aa(lp8768
g6041
ag5
(g9
S'n/\x9a\xd7\xb2\x18\xc7?'
p8769
tp8770
Rp8771
aa(lp8772
Vdelivery
p8773
ag5
(g9
S'\x013=\xed\x96\x96\xc3?'
p8774
tp8775
Rp8776
aasS'SLEEP LABORATORY/MEDICINE'
p8777
(lp8778
(lp8779
g341
ag5
(g9
S'\x94\\\xd8\x1c`\xaa\xc8?'
p8780
tp8781
Rp8782
aa(lp8783
Vrecording
p8784
ag5
(g9
S'\x0b\x8dZ\xfe[\xfd\xc5?'
p8785
tp8786
Rp8787
aa(lp8788
g4531
ag5
(g9
S'I\x1a\x9fC\x8f\xed\xc1?'
p8789
tp8790
Rp8791
aa(lp8792
Vpressured
p8793
ag5
(g9
S'\xe3\xf6\x8a\xb6>\x08\xc1?'
p8794
tp8795
Rp8796
aa(lp8797
Vmask
p8798
ag5
(g9
S'\xe3\xf6\x8a\xb6>\x08\xc1?'
p8799
tp8800
Rp8801
aa(lp8802
Vcontinued
p8803
ag5
(g9
S'\xe3\xf6\x8a\xb6>\x08\xc1?'
p8804
tp8805
Rp8806
aa(lp8807
Vassistance
p8808
ag5
(g9
S'(\x19\xd8\x80\xa39\xc0?'
p8809
tp8810
Rp8811
aa(lp8812
Veeg
p8813
ag5
(g9
S'\xf8&\x8b\xa9\xb0\xc8\xbd?'
p8814
tp8815
Rp8816
aa(lp8817
Vwave
p8818
ag5
(g9
S'\xbd\xe0\xe1\xd7\x934\xbd?'
p8819
tp8820
Rp8821
aa(lp8822
g46
ag5
(g9
S'f\xcfJ%\xd6h\xd8?'
p8823
tp8824
Rp8825
aa(lp8826
g31
ag5
(g9
S'\x80\x87\xcf"\x13)\xd8?'
p8827
tp8828
Rp8829
aa(lp8830
g51
ag5
(g9
S'\x80\x87\xcf"\x13)\xd8?'
p8831
tp8832
Rp8833
aa(lp8834
g26
ag5
(g9
S'1T\xdes\x1d\xea\xd7?'
p8835
tp8836
Rp8837
aa(lp8838
g41
ag5
(g9
S'\xf4k\xcb\xe0Fe\xd5?'
p8839
tp8840
Rp8841
aa(lp8842
g36
ag5
(g9
S'\xf4k\xcb\xe0Fe\xd5?'
p8843
tp8844
Rp8845
aa(lp8846
g56
ag5
(g9
S"\xdc\x9a\xc8'\xa8\x9c\xcb?"
p8847
tp8848
Rp8849
aa(lp8850
g66
ag5
(g9
S'\xe8\x12\xe5\xe5\x95[\xc5?'
p8851
tp8852
Rp8853
aa(lp8854
V30
p8855
ag5
(g9
S'5\xfb\xe7\x9amM\xc5?'
p8856
tp8857
Rp8858
aa(lp8859
Vinitiation
p8860
ag5
(g9
S'@\xac4\x9d.n\xc1?'
p8861
tp8862
Rp8863
aa(lp8864
g867
ag5
(g9
S')\xbf.\xc9}`\xad?'
p8865
tp8866
Rp8867
aa(lp8868
Vsleep
p8869
ag5
(g9
S'\xd9\xe7t\xd24d\xe4?'
p8870
tp8871
Rp8872
aa(lp8873
Vrespiratory
p8874
ag5
(g9
S'\x03O\x9f.\xc7\xd5\xcb?'
p8875
tp8876
Rp8877
aa(lp8878
Vmonitoring
p8879
ag5
(g9
S'\xb9l\xc8V\x17@\xc6?'
p8880
tp8881
Rp8882
aa(lp8883
Veffort
p8884
ag5
(g9
S'\xc5#\xdf\xba\xee\xed\xc4?'
p8885
tp8886
Rp8887
aa(lp8888
Vairflow
p8889
ag5
(g9
S'\xc5#\xdf\xba\xee\xed\xc4?'
p8890
tp8891
Rp8892
aa(lp8893
g3540
ag5
(g9
S'\xca+\xafTG\r\xc3?'
p8894
tp8895
Rp8896
aa(lp8897
g3545
ag5
(g9
S'\xca+\xafTG\r\xc3?'
p8898
tp8899
Rp8900
aa(lp8901
Vunattended
p8902
ag5
(g9
S'\to7\x9b\xc7f\xbb?'
p8903
tp8904
Rp8905
aa(lp8906
g3174
ag5
(g9
S'0\x07\x8cf\xf9?\xd1?'
p8907
tp8908
Rp8909
aa(lp8910
g3223
ag5
(g9
S'N\x19\x90\xbb\xba>\xbc?'
p8911
tp8912
Rp8913
aa(lp8914
g3228
ag5
(g9
S'\xec\xa7d\x0cuz\xb9?'
p8915
tp8916
Rp8917
aasS'NEUROLOGY'
p8918
(lp8919
(lp8920
g225
ag5
(g9
S'\x1d\xaa\x87\xf0qw\xd8?'
p8921
tp8922
Rp8923
aa(lp8924
g699
ag5
(g9
S'\xe4t\xf0\xf2\x18\xcf\xd0?'
p8925
tp8926
Rp8927
aa(lp8928
g704
ag5
(g9
S'\x15\xf3\xabJ^\x83\xd0?'
p8929
tp8930
Rp8931
aa(lp8932
g718
ag5
(g9
S'\xcd\xeb\x98V\x8fd\xd0?'
p8933
tp8934
Rp8935
aa(lp8936
g709
ag5
(g9
S'\xa9\x17\x9c\x19\x9fW\xd0?'
p8937
tp8938
Rp8939
aa(lp8940
g723
ag5
(g9
S'\xe8(\x7f\x1f\xf1\xaa\xc4?'
p8941
tp8942
Rp8943
aa(lp8944
Vmuscles
p8945
ag5
(g9
S'\x81i\xaf^K\xbc\xc3?'
p8946
tp8947
Rp8948
aa(lp8949
g341
ag5
(g9
S'\x13~\xcd\x0c\x138\xc1?'
p8950
tp8951
Rp8952
aa(lp8953
g3925
ag5
(g9
S'\xbb\x15\xdd\xc0\x8ab\xbd?'
p8954
tp8955
Rp8956
aa(lp8957
Vstudies
p8958
ag5
(g9
S'\xf9{\x0b\x82\xf6k\xcd?'
p8959
tp8960
Rp8961
aa(lp8962
Vactivity
p8963
ag5
(g9
S'\x9d\xb3\xbeH\xde\xba\xc8?'
p8964
tp8965
Rp8966
aa(lp8967
Vrecording
p8968
ag5
(g9
S'\xc3)\xc0\x9b\xb9[\xc3?'
p8969
tp8970
Rp8971
aa(lp8972
Vtransmission
p8973
ag5
(g9
S"J\xda#'\xb05\xc0?"
p8974
tp8975
Rp8976
aa(lp8977
g400
ag5
(g9
S'\xbe/\xea\xf0\xabg\xc5?'
p8978
tp8979
Rp8980
aa(lp8981
g395
ag5
(g9
S'+\xef\xa4ob\xf2\xc4?'
p8982
tp8983
Rp8984
aa(lp8985
g405
ag5
(g9
S'\xdc\xa4\x1bq\xf0\n\xc4?'
p8986
tp8987
Rp8988
aa(lp8989
Vawake
p8990
ag5
(g9
S'!\xc7m\xff`\t\xc3?'
p8991
tp8992
Rp8993
aa(lp8994
Vwave
p8995
ag5
(g9
S'\xc3\xb8])\xd4V\xc2?'
p8996
tp8997
Rp8998
aa(lp8999
g208
ag5
(g9
S'\xff,\xb1Q\xb4\\\xd9?'
p9000
tp9001
Rp9002
aa(lp9003
Veeg
p9004
ag5
(g9
S'\xc6\x99\x99=\x8d/\xc8?'
p9005
tp9006
Rp9007
aa(lp9008
g1282
ag5
(g9
S',\x07Ij\xf1=\xc5?'
p9009
tp9010
Rp9011
aasS'HOSPICE AND PALLIATIVE CARE'
p9012
(lp9013
(lp9014
g441
ag5
(g9
S'\xc7\x82\x81<j\x7f\xdb?'
p9015
tp9016
Rp9017
aa(lp9018
g225
ag5
(g9
S'\x0b{\xd4\xa7!g\xda?'
p9019
tp9020
Rp9021
aa(lp9022
g460
ag5
(g9
S'r#\x88\xa5V\xf0\xcb?'
p9023
tp9024
Rp9025
aa(lp9026
g699
ag5
(g9
S'\xf5;.p\\M\xc1?'
p9027
tp9028
Rp9029
aa(lp9030
g704
ag5
(g9
S'Q\x98 \xaf|V\xb7?'
p9031
tp9032
Rp9033
aa(lp9034
g709
ag5
(g9
S"\xa3'\x83\x01\xa9\x18\xb7?"
p9035
tp9036
Rp9037
aa(lp9038
g723
ag5
(g9
S'\xdc3}|k\x1e\xb4?'
p9039
tp9040
Rp9041
aa(lp9042
g480
ag5
(g9
S'\xa1\x9f|S3%\xad?'
p9043
tp9044
Rp9045
aa(lp9046
g485
ag5
(g9
S'\xa1\x9f|S3%\xad?'
p9047
tp9048
Rp9049
aa(lp9050
g1323
ag5
(g9
S'\xbe\x8d-\xcar\xaf\x97?'
p9051
tp9052
Rp9053
aa(lp9054
g41
ag5
(g9
S'@\x82\xbe\xa6\xb5\xab\xba?'
p9055
tp9056
Rp9057
aa(lp9058
g3838
ag5
(g9
S'\xb0\xe9\x06k\x8cw\xb6?'
p9059
tp9060
Rp9061
aa(lp9062
Vobservation
p9063
ag5
(g9
S'\xff\xd6`\xb4x\xf9\xaa?'
p9064
tp9065
Rp9066
aa(lp9067
Vhealth
p9068
ag5
(g9
S'~\xef\xa8f\xd1{\xa4?'
p9069
tp9070
Rp9071
aa(lp9072
g5482
ag5
(g9
S'\xf8|\xa9\xcc\xac\xfe\xa0?'
p9073
tp9074
Rp9075
aa(lp9076
g66
ag5
(g9
S'\xdb[\xeep\xe8\xab\x9c?'
p9077
tp9078
Rp9079
aa(lp9080
g400
ag5
(g9
S'D+sT\xc5\xdb\xda?'
p9081
tp9082
Rp9083
aa(lp9084
g877
ag5
(g9
S't\x0e\xca\xba>\x9d\xd9?'
p9085
tp9086
Rp9087
aa(lp9088
g395
ag5
(g9
S'\x17\xc8^\x88\xe0\x88\xd7?'
p9089
tp9090
Rp9091
aa(lp9092
g926
ag5
(g9
S'\x92\xd6g\x89\x98\xd5\xd9?'
p9093
tp9094
Rp9095
aa(lp9096
g931
ag5
(g9
S'\xcdO\x137_v\xc5?'
p9097
tp9098
Rp9099
aa(lp9100
Vprolonged
p9101
ag5
(g9
S'\xa0\xd1\x88\x88\xa7 \xa8?'
p9102
tp9103
Rp9104
aa(lp9105
Vservice
p9106
ag5
(g9
S'\x0c\x11\xdf\x0c6\xe8\xa3?'
p9107
tp9108
Rp9109
aa(lp9110
g2033
ag5
(g9
S'\x92\x14M*\x18\xc6\xa2?'
p9111
tp9112
Rp9113
aa(lp9114
V60
p9115
ag5
(g9
S'\xd0\xe1\xabX\xdeU\x92?'
p9116
tp9117
Rp9118
aasS'ANESTHESIOLOGY ASSISTANT'
p9119
(lp9120
(lp9121
g1191
ag5
(g9
S'\x11\x06\xcf2\xd0B\xd7?'
p9122
tp9123
Rp9124
aa(lp9125
Vlens
p9126
ag5
(g9
S'\xf0z\t\xf8\xdb\xfe\xca?'
p9127
tp9128
Rp9129
aa(lp9130
Vintestine
p9131
ag5
(g9
S'\xf4c\xa65FU\xca?'
p9132
tp9133
Rp9134
aa(lp9135
g1725
ag5
(g9
S'\x85\xf1\x17\xb5\x04.\xc4?'
p9136
tp9137
Rp9138
aa(lp9139
Vsurgery
p9140
ag5
(g9
S'\xa9T?{\xd9,\xc1?'
p9141
tp9142
Rp9143
aa(lp9144
g2255
ag5
(g9
S'R\r$\x18\xa2\xe4\xb7?'
p9145
tp9146
Rp9147
aa(lp9148
Vtransplant
p9149
ag5
(g9
S'N\xedn\xce.\x8e\xb1?'
p9150
tp9151
Rp9152
aa(lp9153
g2260
ag5
(g9
S'\t\xe5\xfbv9/\xb1?'
p9154
tp9155
Rp9156
aa(lp9157
g6721
ag5
(g9
S'>i\xcc\x81\xb85\xa7?'
p9158
tp9159
Rp9160
aa(lp9161
Vkidney
p9162
ag5
(g9
S';R\xd0KZ\x04\xa6?'
p9163
tp9164
Rp9165
aa(lp9166
Vcavity
p9167
ag5
(g9
S';R\xd0KZ\x04\xa6?'
p9168
tp9169
Rp9170
aa(lp9171
g3877
ag5
(g9
S';R\xd0KZ\x04\xa6?'
p9172
tp9173
Rp9174
aa(lp9175
g1614
ag5
(g9
S'\xf9V\xbf\x93,\xff\xa0?'
p9176
tp9177
Rp9178
aa(lp9179
Vgastrointestinal
p9180
ag5
(g9
S';uUb\xfa\xf5\xde?'
p9181
tp9182
Rp9183
aa(lp9184
Vtract
p9185
ag5
(g9
S'\x91\x01\xed\x81\x15\xec\xdb?'
p9186
tp9187
Rp9188
aa(lp9189
g2300
ag5
(g9
S'k\x84\xc6\x98"\xfb\xcc?'
p9190
tp9191
Rp9192
aa(lp9193
Vsampling
p9194
ag5
(g9
S'\xe6\x11\x83\xd7\xe6`\xcc?'
p9195
tp9196
Rp9197
aa(lp9198
g3290
ag5
(g9
S'\xa0\xb6\xab\x16|\x04\xc6?'
p9199
tp9200
Rp9201
aa(lp9202
Varterial
p9203
ag5
(g9
S'\xa0\xb6\xab\x16|\x04\xc6?'
p9204
tp9205
Rp9206
aa(lp9207
g4338
ag5
(g9
S'\xad(\xa8\xe1f\xff\xc3?'
p9208
tp9209
Rp9210
aa(lp9211
g3281
ag5
(g9
S'F\x05\x00\x83\xda\xca\xbf?'
p9212
tp9213
Rp9214
aa(lp9215
g269
ag5
(g9
S'\xbe\xb24\xa7\x88\xd1\xbe?'
p9216
tp9217
Rp9218
aa(lp9219
g2325
ag5
(g9
S'\xc5\xa0\xf20\x19\x9b\xe9?'
p9220
tp9221
Rp9222
aa(lp9223
g2330
ag5
(g9
S'\xfc\t \x8dF\x03\xd6?'
p9224
tp9225
Rp9226
aa(lp9227
Vbursae
p9228
ag5
(g9
S'\xcc\x81\x0cJoI\xc0?'
p9229
tp9230
Rp9231
aa(lp9232
g2350
ag5
(g9
S'\x1eyo\x90\xb0z\xbf?'
p9233
tp9234
Rp9235
aa(lp9236
Vtendons
p9237
ag5
(g9
S'A|s\xadV\x9d\xbd?'
p9238
tp9239
Rp9240
aa(lp9241
Vupper
p9242
ag5
(g9
S'9\xde\xef\xcc .\xb8?'
p9243
tp9244
Rp9245
aa(lp9246
Vnerves
p9247
ag5
(g9
S'\x0f\xeaB\xba~,\xb7?'
p9248
tp9249
Rp9250
aa(lp9251
Vforearm
p9252
ag5
(g9
S'\x95\xd8\xd1\xa1UE\xb5?'
p9253
tp9254
Rp9255
aa(lp9256
Vwrist
p9257
ag5
(g9
S'1"\xce\x98\xb4\xfc\xb3?'
p9258
tp9259
Rp9260
aa(lp9261
Vhand
p9262
ag5
(g9
S'1"\xce\x98\xb4\xfc\xb3?'
p9263
tp9264
Rp9265
aa(lp9266
Vknee
p9267
ag5
(g9
S'[uS\xa4V\xf2\xb0?'
p9268
tp9269
Rp9270
aa(lp9271
Velectric
p9272
ag5
(g9
S'\xfcie\xca\x98f\xc7?'
p9273
tp9274
Rp9275
aa(lp9276
g7197
ag5
(g9
S'\xbc=\xba\xd4\xe7\xdc\xc3?'
p9277
tp9278
Rp9279
aa(lp9280
Vshock
p9281
ag5
(g9
S'\xf3\xb7\x87e\x15S\xc1?'
p9282
tp9283
Rp9284
aa(lp9285
Vrectum
p9286
ag5
(g9
S'D(\xda\x1c\xd0\xae\xbf?'
p9287
tp9288
Rp9289
aa(lp9290
Vanus
p9291
ag5
(g9
S'D(\xda\x1c\xd0\xae\xbf?'
p9292
tp9293
Rp9294
aa(lp9295
g7182
ag5
(g9
S'\xfe\xa43\xa6\xb8W\xbb?'
p9296
tp9297
Rp9298
aa(lp9299
g7192
ag5
(g9
S'*\x96$4\xad\xae\xb5?'
p9300
tp9301
Rp9302
aa(lp9303
Vtreatment
p9304
ag5
(g9
S'\x06\xbbzl\xc1\xab\xb1?'
p9305
tp9306
Rp9307
aasS'OCCUPATIONAL THERAPY'
p9308
(lp9309
(lp9310
Vhot
p9311
ag5
(g9
S'\xdb9\xba\xa3@\x99\xb8?'
p9312
tp9313
Rp9314
aa(lp9315
g1026
ag5
(g9
S'$\x9d\xcfXv\xab\xcd?'
p9316
tp9317
Rp9318
aa(lp9319
g1066
ag5
(g9
S'>\xc9#4!\xdf\xca?'
p9320
tp9321
Rp9322
aa(lp9323
Vflexibility
p9324
ag5
(g9
S'>\xc9#4!\xdf\xca?'
p9325
tp9326
Rp9327
aa(lp9328
Vdevelop
p9329
ag5
(g9
S'>\xc9#4!\xdf\xca?'
p9330
tp9331
Rp9332
aa(lp9333
Vstrength
p9334
ag5
(g9
S'cI\x1c\xf4\xeav\xca?'
p9335
tp9336
Rp9337
aa(lp9338
Vendurance
p9339
ag5
(g9
S'cI\x1c\xf4\xeav\xca?'
p9340
tp9341
Rp9342
aa(lp9343
Vmotion
p9344
ag5
(g9
S'\xc0:\x1e\x1axF\xc8?'
p9345
tp9346
Rp9347
aa(lp9348
g2453
ag5
(g9
S'\x06:\xc9g>\xa5\xd6?'
p9349
tp9350
Rp9351
aa(lp9352
g7408
ag5
(g9
S'\xfc\xde]:\xca\x05\xd3?'
p9353
tp9354
Rp9355
aa(lp9356
g4171
ag5
(g9
S'\xaa\x91e\xc9\x8bV\xc5?'
p9357
tp9358
Rp9359
aa(lp9360
g4255
ag5
(g9
S'\xa7\r\xf5\x1fK\x05\xc1?'
p9361
tp9362
Rp9363
aa(lp9364
Vprovider
p9365
ag5
(g9
S'\x91\xdd\x7f\xe6\xcc\xf9\xc0?'
p9366
tp9367
Rp9368
aa(lp9369
Voneonone
p9370
ag5
(g9
S'\x91\xdd\x7f\xe6\xcc\xf9\xc0?'
p9371
tp9372
Rp9373
aa(lp9374
Vactivities
p9375
ag5
(g9
S'\x91\xdd\x7f\xe6\xcc\xf9\xc0?'
p9376
tp9377
Rp9378
aa(lp9379
Vcontact
p9380
ag5
(g9
S'\x88\x97\xe1\x05\x9a\xa2\xc0?'
p9381
tp9382
Rp9383
aa(lp9384
Voccupational
p9385
ag5
(g9
S'\xb4\x94\x99\xe3\x9e\xcb\xd8?'
p9386
tp9387
Rp9388
aa(lp9389
g627
ag5
(g9
S'\x90X\xcc\xb0jm\xd4?'
p9390
tp9391
Rp9392
aa(lp9393
Vtechniques
p9394
ag5
(g9
S'=E)\x1a\x05\x9c\xc7?'
p9395
tp9396
Rp9397
aa(lp9398
Vregions
p9399
ag5
(g9
S'\x8b\xa5-\xc9\x1e\x7f\xc6?'
p9400
tp9401
Rp9402
aa(lp9403
Vphysical
p9404
ag5
(g9
S'\x89\x0b\x08\xd9\xb8\x16\xc5?'
p9405
tp9406
Rp9407
aa(lp9408
Vapplication
p9409
ag5
(g9
S'\xd1\x07L\xd4\xbc\xd3\xc4?'
p9410
tp9411
Rp9412
aa(lp9413
Vmanual
p9414
ag5
(g9
S'\x08\x80R\xba\xfc\xab\xc0?'
p9415
tp9416
Rp9417
aa(lp9418
Vimprove
p9419
ag5
(g9
S'vG<j\xc3\xa7\xb5?'
p9420
tp9421
Rp9422
aasS'NURSE PRACTITIONER'
p9423
(lp9424
(lp9425
g225
ag5
(g9
S'\x14\x8f6%h\x9d\xda?'
p9426
tp9427
Rp9428
aa(lp9429
g704
ag5
(g9
S"\xb3k'[?\xa9\xd1?"
p9430
tp9431
Rp9432
aa(lp9433
g709
ag5
(g9
S'=>\xe3\xd4\xf7w\xd1?'
p9434
tp9435
Rp9436
aa(lp9437
g723
ag5
(g9
S'F\x9c\x9e$\xc5\xf4\xce?'
p9438
tp9439
Rp9440
aa(lp9441
g2596
ag5
(g9
S'k;\xef\xf9M\xcd\xb9?'
p9442
tp9443
Rp9444
aa(lp9445
g450
ag5
(g9
S'8r\xc7\xef\x04$\xb5?'
p9446
tp9447
Rp9448
aa(lp9449
g26
ag5
(g9
S'\xd5\xd5\xe4AT\x85\xdb?'
p9450
tp9451
Rp9452
aa(lp9453
g1358
ag5
(g9
S'R\x82pPi6\xbf?'
p9454
tp9455
Rp9456
aa(lp9457
g1363
ag5
(g9
S'\x17$-\x88s\xcc\xbe?'
p9458
tp9459
Rp9460
aa(lp9461
g269
ag5
(g9
S'\x9d0\xdc\xd5,\xd8\xbb?'
p9462
tp9463
Rp9464
aa(lp9465
g390
ag5
(g9
S' }\xa5\x9daj\xd2?'
p9466
tp9467
Rp9468
aa(lp9469
g882
ag5
(g9
S'\x1a\xad\x07\xeeQI\xbe?'
p9470
tp9471
Rp9472
aa(lp9473
g592
ag5
(g9
S'\x89\x9e5z\xe4\x1f\xbb?'
p9474
tp9475
Rp9476
aa(lp9477
g582
ag5
(g9
S'\xf0\xfa\x16\x86\xe3\x17\xb9?'
p9478
tp9479
Rp9480
aa(lp9481
g612
ag5
(g9
S'=\x8b\x81\x03DQ\xb8?'
p9482
tp9483
Rp9484
aa(lp9485
g279
ag5
(g9
S'\x05_t4\x1dk\xb6?'
p9486
tp9487
Rp9488
aa(lp9489
g1578
ag5
(g9
S'\xdcm\x88n\x9d\x92\xda?'
p9490
tp9491
Rp9492
aa(lp9493
g1282
ag5
(g9
S'\x05B\xd2]9\x95\xc3?'
p9494
tp9495
Rp9496
aa(lp9497
g921
ag5
(g9
S'T\x8e\x10\xdaN\xe0\xb2?'
p9498
tp9499
Rp9500
aa(lp9501
g926
ag5
(g9
S'\xb7L\xa8\xbb\x08Y\xb1?'
p9502
tp9503
Rp9504
aasS'INFECTIOUS DISEASE'
p9505
(lp9506
(lp9507
g225
ag5
(g9
S'\xae\xeb\xeb\x9dg\xe1\xdb?'
p9508
tp9509
Rp9510
aa(lp9511
g718
ag5
(g9
S'SD\xb9J\xc0\xc0\xc5?'
p9512
tp9513
Rp9514
aa(lp9515
g475
ag5
(g9
S'\x96R\xd5\x92\x95\xe5\xc2?'
p9516
tp9517
Rp9518
aa(lp9519
g992
ag5
(g9
S'\x12$\x06A\xcb\xbe\xa6?'
p9520
tp9521
Rp9522
aa(lp9523
g235
ag5
(g9
S'\xef\x9b\x88\xb3\xc56\xa0?'
p9524
tp9525
Rp9526
aa(lp9527
g3687
ag5
(g9
S'BW\xc2\xb6\x05m\x9e?'
p9528
tp9529
Rp9530
aa(lp9531
g240
ag5
(g9
S'\x177U\n\xb6R\x9e?'
p9532
tp9533
Rp9534
aa(lp9535
g26
ag5
(g9
S'\x99QD\xf3\x8dU\xde?'
p9536
tp9537
Rp9538
aa(lp9539
g31
ag5
(g9
S'C\x9c\x13>\xb8Y\xc9?'
p9540
tp9541
Rp9542
aa(lp9543
g46
ag5
(g9
S'\xbc%\xec\x8b\xb3\xca\xc6?'
p9544
tp9545
Rp9546
aa(lp9547
g51
ag5
(g9
S'\x18\x95\xd0S*\x8f\xc6?'
p9548
tp9549
Rp9550
aa(lp9551
g56
ag5
(g9
S'\xaf\xfa\x87*\xa2\r\xc1?'
p9552
tp9553
Rp9554
aa(lp9555
g269
ag5
(g9
S'\x10dR\xcf\xbc#\xa2?'
p9556
tp9557
Rp9558
aa(lp9559
g1358
ag5
(g9
S'\\\x1f\x1e=\xf2\x95\x9d?'
p9560
tp9561
Rp9562
aa(lp9563
g1363
ag5
(g9
S'\xeeCT\xba\x836\x9d?'
p9564
tp9565
Rp9566
aa(lp9567
g877
ag5
(g9
S'G\x85I\xe7\xbc\xa0\xd5?'
p9568
tp9569
Rp9570
aa(lp9571
g400
ag5
(g9
S'\x15^\x80jt\x0b\xd5?'
p9572
tp9573
Rp9574
aa(lp9575
g395
ag5
(g9
S'\x19\xc0O\xda\x15\x93\xd4?'
p9576
tp9577
Rp9578
aa(lp9579
g405
ag5
(g9
S'#1\x1f\xb5`\x90\xd4?'
p9580
tp9581
Rp9582
aa(lp9583
g882
ag5
(g9
S'jd\x10\x97\xcd\x81\xc7?'
p9584
tp9585
Rp9586
aa(lp9587
g592
ag5
(g9
S'C\xdf>G\xce\xf4\xa7?'
p9588
tp9589
Rp9590
aa(lp9591
g582
ag5
(g9
S'\xa1\xeaa\xd7\x02\x99\xa4?'
p9592
tp9593
Rp9594
aa(lp9595
g612
ag5
(g9
S'\xf2\xdf\x12C\x84\xe5\x9e?'
p9596
tp9597
Rp9598
aasS'INTERVENTIONAL RADIOLOGY'
p9599
(lp9600
(lp9601
g7441
ag5
(g9
S'\x96\xea}\xba\xf8\xde\xd6?'
p9602
tp9603
Rp9604
aa(lp9605
g8281
ag5
(g9
S'\xc7"\x0f<\xc5\xfe\xd5?'
p9606
tp9607
Rp9608
aa(lp9609
g8333
ag5
(g9
S'[\xc1\xa99\x8f\x12\xd4?'
p9610
tp9611
Rp9612
aa(lp9613
Vchest
p9614
ag5
(g9
S'o\xd1\x0b\x18\xfa\xf3\xc9?'
p9615
tp9616
Rp9617
aa(lp9618
g8020
ag5
(g9
S'\xca+\x1d\xe3\xe3o\xc9?'
p9619
tp9620
Rp9621
aa(lp9622
g3877
ag5
(g9
S'H\x1f-\x12\xfd\xa2\xc5?'
p9623
tp9624
Rp9625
aa(lp9626
g6721
ag5
(g9
S'J@,\xb5\x93\xb8\xbf?'
p9627
tp9628
Rp9629
aa(lp9630
g9167
ag5
(g9
S'\x8c\xd8\x1f.\xdc\xa6\xba?'
p9631
tp9632
Rp9633
aa(lp9634
Vpelvis
p9635
ag5
(g9
S'\xd7\x99_ \xd1\x95\xba?'
p9636
tp9637
Rp9638
aa(lp9639
g8338
ag5
(g9
S'p\xb3t\xa5#\xfb\xb9?'
p9640
tp9641
Rp9642
aa(lp9643
g3783
ag5
(g9
S'\xd1FB\xc8\xe3y\xd4?'
p9644
tp9645
Rp9646
aa(lp9647
g3788
ag5
(g9
S'pBV\xba8?\xc2?'
p9648
tp9649
Rp9650
aa(lp9651
g528
ag5
(g9
S'\x92\x1a\xe7:\xcb*\xc1?'
p9652
tp9653
Rp9654
aa(lp9655
g1399
ag5
(g9
S'[)\x1b\xa0./\xcc?'
p9656
tp9657
Rp9658
aa(lp9659
Vradiological
p9660
ag5
(g9
S'\x02\xd1\xb0\xf0\xc6N\xc1?'
p9661
tp9662
Rp9663
aa(lp9664
Vnarrowed
p9665
ag5
(g9
S'|]\xadx\xb3\xaf\xbf?'
p9666
tp9667
Rp9668
aa(lp9669
Vleg
p9670
ag5
(g9
S'\x89\x1e\x14r\x1d\xde\xbb?'
p9671
tp9672
Rp9673
aa(lp9674
g7281
ag5
(g9
S'\xd5\x8e\xb2^\xa7\x9b\xd2?'
p9675
tp9676
Rp9677
aa(lp9678
g7272
ag5
(g9
S' \xab\xfb\n\xbe\t\xd1?'
p9679
tp9680
Rp9681
aa(lp9682
g1815
ag5
(g9
S"H\x03'\xa5\x8e\xc7\xce?"
p9683
tp9684
Rp9685
aa(lp9686
Vartery
p9687
ag5
(g9
S'e\x1b\xa3\x8bc\xe9\xc7?'
p9688
tp9689
Rp9690
aa(lp9691
g2016
ag5
(g9
S'\t\xe77*\xc1Q\xc4?'
p9692
tp9693
Rp9694
aa(lp9695
g2006
ag5
(g9
S'\xddb\xa1<\x81\x9a\xc0?'
p9696
tp9697
Rp9698
aa(lp9699
g2011
ag5
(g9
S'\x1b \xd0\x8aD.\xc0?'
p9700
tp9701
Rp9702
aa(lp9703
Vsupervision
p9704
ag5
(g9
S'X\xd2\xbd\x85[\x95\xbe?'
p9705
tp9706
Rp9707
aa(lp9708
Vneedle
p9709
ag5
(g9
S'\xce\x7f_\x02d\xe8\xbc?'
p9710
tp9711
Rp9712
aa(lp9713
g7568
ag5
(g9
S'\x07\x1f\x89\xad-&\xbc?'
p9714
tp9715
Rp9716
aasS'UNDEFINED PHYSICIAN TYPE (SPECIFY)'
p9717
(lp9718
(lp9719
g225
ag5
(g9
S'\xd2mi\xd3\xa4\x08\xd7?'
p9720
tp9721
Rp9722
aa(lp9723
Vmandible
p9724
ag5
(g9
S'4\x8cJb/\x1c\xc8?'
p9725
tp9726
Rp9727
aa(lp9728
g7428
ag5
(g9
S'\xd0!\xd5q\x1f\x01\xc7?'
p9729
tp9730
Rp9731
aa(lp9732
g2265
ag5
(g9
S'u7\xa1\x11\xd9\xb2\xc6?'
p9733
tp9734
Rp9735
aa(lp9736
g992
ag5
(g9
S'\x02~\xc7h\xe0\x94\xc6?'
p9737
tp9738
Rp9739
aa(lp9740
Vsection
p9741
ag5
(g9
S'\x1fL\xb7\xcf\x9e\x8b\xc4?'
p9742
tp9743
Rp9744
aa(lp9745
Vorthotic
p9746
ag5
(g9
S'\xe8\x05\xce2\xfb\xcc\xc2?'
p9747
tp9748
Rp9749
aa(lp9750
g1634
ag5
(g9
S'\x9d\xa7\x9et\xc8}\xc2?'
p9751
tp9752
Rp9753
aa(lp9754
g7441
ag5
(g9
S'P\xe1\x96\x98\x04}\xc1?'
p9755
tp9756
Rp9757
aa(lp9758
Vprosthetic
p9759
ag5
(g9
S'70\xb0\x90zW\xc0?'
p9760
tp9761
Rp9762
aa(lp9763
Vneurostimulator
p9764
ag5
(g9
S'\xc6\xa8x\xc8\xcdg\xbf?'
p9765
tp9766
Rp9767
aa(lp9768
Vmedium
p9769
ag5
(g9
S'\xc6\xa8x\xc8\xcdg\xbf?'
p9770
tp9771
Rp9772
aa(lp9773
Vprovider
p9774
ag5
(g9
S'\xca}Ny\xdb?\xbe?'
p9775
tp9776
Rp9777
aa(lp9778
Voneonone
p9779
ag5
(g9
S'\xca}Ny\xdb?\xbe?'
p9780
tp9781
Rp9782
aa(lp9783
Vactivities
p9784
ag5
(g9
S'\xca}Ny\xdb?\xbe?'
p9785
tp9786
Rp9787
aa(lp9788
Vsleep
p9789
ag5
(g9
S'\xc7\x13\xa5\xb7>2\xd5?'
p9790
tp9791
Rp9792
aa(lp9793
g41
ag5
(g9
S'\rgo\xa8k\xeb\xd4?'
p9794
tp9795
Rp9796
aa(lp9797
g46
ag5
(g9
S'\x0b\x1d)\x13\xda\x17\xd3?'
p9798
tp9799
Rp9800
aa(lp9801
g31
ag5
(g9
S'\xe9X{/\xfa\xe5\xd2?'
p9802
tp9803
Rp9804
aa(lp9805
g51
ag5
(g9
S'\xe9X{/\xfa\xe5\xd2?'
p9806
tp9807
Rp9808
aa(lp9809
g26
ag5
(g9
S'\xa7\x9e\x1a\xe7\xba\xb4\xd2?'
p9810
tp9811
Rp9812
aa(lp9813
g56
ag5
(g9
S'^\x059G\xf7X\xcc?'
p9814
tp9815
Rp9816
aa(lp9817
Vlab
p9818
ag5
(g9
S'N\x9fW#\x1b\xf4\xc3?'
p9819
tp9820
Rp9821
aa(lp9822
g1544
ag5
(g9
S'\xc4R\x9ds\x7f\xe3\xc3?'
p9823
tp9824
Rp9825
aa(lp9826
Vstool
p9827
ag5
(g9
S'\xd4\x1a\x9a.3\x9a\xc0?'
p9828
tp9829
Rp9830
aa(lp9831
Vyears
p9832
ag5
(g9
S'\x86\xfaw\x08\xc5\x96\xc0?'
p9833
tp9834
Rp9835
aa(lp9836
Volder
p9837
ag5
(g9
S'\x86\xfaw\x08\xc5\x96\xc0?'
p9838
tp9839
Rp9840
aa(lp9841
g3059
ag5
(g9
S'\xd2\xf8\x9c\xb2T!\xc0?'
p9842
tp9843
Rp9844
aa(lp9845
Vvaccine
p9846
ag5
(g9
S'[n|\xef\xa9\x84\xba?'
p9847
tp9848
Rp9849
aa(lp9850
Vinfluenza
p9851
ag5
(g9
S'[n|\xef\xa9\x84\xba?'
p9852
tp9853
Rp9854
aa(lp9855
Vmonitoring
p9856
ag5
(g9
S'\xbb=\x0e\xee\xef3\xba?'
p9857
tp9858
Rp9859
aa(lp9860
Vanalysis
p9861
ag5
(g9
S'\xa3iL\xcb\x08\x1b\xb7?'
p9862
tp9863
Rp9864
aa(lp9865
Vpressured
p9866
ag5
(g9
S'\xa7D\xbc\xc1Z\xc2\xb4?'
p9867
tp9868
Rp9869
aa(lp9870
g6260
ag5
(g9
S'\xbe\x04^~r\x88\xda?'
p9871
tp9872
Rp9873
aa(lp9874
g4150
ag5
(g9
S'\xdc\x8dO\x92ts\xc6?'
p9875
tp9876
Rp9877
aa(lp9878
g2540
ag5
(g9
S'\xba\x033\x97\xb4\xb1\xc4?'
p9879
tp9880
Rp9881
aa(lp9882
g178
ag5
(g9
S'"\xdf\x88M\xdc\x01\xc3?'
p9883
tp9884
Rp9885
aa(lp9886
Vstress
p9887
ag5
(g9
S'\xec\xc1\xbdV\xc8\xc7\xc2?'
p9888
tp9889
Rp9890
aa(lp9891
g3326
ag5
(g9
S'\xfe\xfc\xf8\x0b\x1d\xb8\xc1?'
p9892
tp9893
Rp9894
aa(lp9895
g6286
ag5
(g9
S'\xa7\xd8YY\xf12\xc1?'
p9896
tp9897
Rp9898
aa(lp9899
g173
ag5
(g9
S'\xba\x00\xac\x9c\xde\xfb\xc0?'
p9900
tp9901
Rp9902
aa(lp9903
g4171
ag5
(g9
S'_\xb5\x04cQ\x87\xc0?'
p9904
tp9905
Rp9906
aa(lp9907
g877
ag5
(g9
S'\xd3g\xf2-Q\xd5\xbf?'
p9908
tp9909
Rp9910
aa(lp9911
Vvessels
p9912
ag5
(g9
S'\xb9c\xbdj\x88\xbd\xbe?'
p9913
tp9914
Rp9915
aa(lp9916
g400
ag5
(g9
S'\xf0f\xa5\x18wE\xbd?'
p9917
tp9918
Rp9919
aa(lp9920
g395
ag5
(g9
S'\xfddC\x8c\xc9\x0b\xbc?'
p9921
tp9922
Rp9923
aasS'OCCUPATIONAL THERAPIST'
p9924
(lp9925
(lp9926
Voccupational
p9927
ag5
(g9
S'RM\x13\x161\xb3\xd9?'
p9928
tp9929
Rp9930
aa(lp9931
g1092
ag5
(g9
S'\x8f\x90P\xe9\x97<\xc6?'
p9932
tp9933
Rp9934
aa(lp9935
g123
ag5
(g9
S'\xd6\x00r\x05bU\xc2?'
p9936
tp9937
Rp9938
aa(lp9939
g1016
ag5
(g9
S'\xbd\x1c<\xcer\xf1\xd1?'
p9940
tp9941
Rp9942
aa(lp9943
g1066
ag5
(g9
S'\x1ez\x8b\xa8\xea2\xcc?'
p9944
tp9945
Rp9946
aa(lp9947
g9324
ag5
(g9
S'^\x17\x01\xb0w\x02\xcc?'
p9948
tp9949
Rp9950
aa(lp9951
g9329
ag5
(g9
S'^\x17\x01\xb0w\x02\xcc?'
p9952
tp9953
Rp9954
aa(lp9955
g9334
ag5
(g9
S'\xad\x06l\x96\xd7\x95\xcb?'
p9956
tp9957
Rp9958
aa(lp9959
g9339
ag5
(g9
S'\xad\x06l\x96\xd7\x95\xcb?'
p9960
tp9961
Rp9962
aa(lp9963
Vregions
p9964
ag5
(g9
S'\\\xb8K\xc0\xccs\xc2?'
p9965
tp9966
Rp9967
aa(lp9968
g1011
ag5
(g9
S'|m\xf4\xe2\x86\xe0\xc1?'
p9969
tp9970
Rp9971
aa(lp9972
g2453
ag5
(g9
S'\x85\xa0\xb8\x1e\x1b\xa4\xd6?'
p9973
tp9974
Rp9975
aa(lp9976
g1120
ag5
(g9
S'\xac\xa7E\xf2&1\xc3?'
p9977
tp9978
Rp9979
aa(lp9980
g1115
ag5
(g9
S'\xa2\xa6\xa5\x82\xb6\xf5\xc1?'
p9981
tp9982
Rp9983
aa(lp9984
g9365
ag5
(g9
S'\x96U\x99)8\x8e\xc1?'
p9985
tp9986
Rp9987
aa(lp9988
g9370
ag5
(g9
S'\x96U\x99)8\x8e\xc1?'
p9989
tp9990
Rp9991
aa(lp9992
g9375
ag5
(g9
S'\x96U\x99)8\x8e\xc1?'
p9993
tp9994
Rp9995
aa(lp9996
g9380
ag5
(g9
S'\x95>m\xe8\n4\xc1?'
p9997
tp9998
Rp9999
aa(lp10000
g1149
ag5
(g9
S'\x00\x8c\xc6\xddYV\xd5?'
p10001
tp10002
Rp10003
aa(lp10004
g1179
ag5
(g9
S'\x17Y\x196\xfd\xd2\xc9?'
p10005
tp10006
Rp10007
aa(lp10008
g9419
ag5
(g9
S'\xb4\r\xd6\xebzD\xc0?'
p10009
tp10010
Rp10011
aasS'PSYCHOLOGIST (BILLING INDEPENDENTLY)'
p10012
(lp10013
(lp10014
Vbehavior
p10015
ag5
(g9
S'\xb7rn\xbd\x95\x80\xdb?'
p10016
tp10017
Rp10018
aa(lp10019
g225
ag5
(g9
S'\xba\x90\xc6ii\xab\xd3?'
p10020
tp10021
Rp10022
aa(lp10023
g490
ag5
(g9
S'\x13\xf7\xa9Ao\xc9\xc9?'
p10024
tp10025
Rp10026
aa(lp10027
V45
p10028
ag5
(g9
S'\x84I\xcb\n\x9ej\xc9?'
p10029
tp10030
Rp10031
aa(lp10032
Vintervention
p10033
ag5
(g9
S'j\x8d^\xfev\xe5\xc5?'
p10034
tp10035
Rp10036
aa(lp10037
g2797
ag5
(g9
S'dmg\xcd\x17%\xc3?'
p10038
tp10039
Rp10040
aa(lp10041
g5870
ag5
(g9
S'g\xf3\xfe%\xe9[\xb6?'
p10042
tp10043
Rp10044
aa(lp10045
Vpsychiatric
p10046
ag5
(g9
S'\xbe\x1e`}y\x00\xd9?'
p10047
tp10048
Rp10049
aa(lp10050
g2967
ag5
(g9
S'\xea\xf5r\xd5\x1ab\xce?'
p10051
tp10052
Rp10053
aa(lp10054
g1244
ag5
(g9
S'z\xf1\xc6\xc1\xec\xc3\xcc?'
p10055
tp10056
Rp10057
aa(lp10058
g857
ag5
(g9
S'\x0e\x9d\xd5\xb1n\xb3\xca?'
p10059
tp10060
Rp10061
aa(lp10062
Vpsychologist
p10063
ag5
(g9
S'\xfd\xc0(I\xd3>\xdf?'
p10064
tp10065
Rp10066
aa(lp10067
V30
p10068
ag5
(g9
S'c\x11Z}\xac\x96\xd5?'
p10069
tp10070
Rp10071
aa(lp10072
Vneuropsychological
p10073
ag5
(g9
S'\x0b\xc5\xc2\x95I\t\xd3?'
p10074
tp10075
Rp10076
aa(lp10077
Vneurobehavioral
p10078
ag5
(g9
S'\x86\xdd]M\x14\xd3\xd1?'
p10079
tp10080
Rp10081
aa(lp10082
g178
ag5
(g9
S'34\xd4\xd6bU\xd1?'
p10083
tp10084
Rp10085
aa(lp10086
g2535
ag5
(g9
S'\xfa$D~E\xf0\xd0?'
p10087
tp10088
Rp10089
aa(lp10090
g173
ag5
(g9
S'\xcc\xa58\x17\x04\xfa\xce?'
p10091
tp10092
Rp10093
aa(lp10094
g6277
ag5
(g9
S'\x82\xe3\xbe\xb0\xe6\xa8\xcd?'
p10095
tp10096
Rp10097
aa(lp10098
Vstatus
p10099
ag5
(g9
S'\xed\xd4\x8b\x10\xc9\x8e\xc3?'
p10100
tp10101
Rp10102
aa(lp10103
g3117
ag5
(g9
S'\xcc\xa58\x17\x04\xfa\xbe?'
p10104
tp10105
Rp10106
aa(lp10107
g2141
ag5
(g9
S'\x1c\xb8\xc0\x1c\xa4\xa3\xdb?'
p10108
tp10109
Rp10110
aa(lp10111
g3450
ag5
(g9
S'\x1c\xb8\xc0\x1c\xa4\xa3\xdb?'
p10112
tp10113
Rp10114
aa(lp10115
g3455
ag5
(g9
S'Af\xd3d\x8c!\xdb?'
p10116
tp10117
Rp10118
aa(lp10119
g1458
ag5
(g9
S'\xc7T\x05\x82\xe5{\xc7?'
p10120
tp10121
Rp10122
aa(lp10123
g3030
ag5
(g9
S'\x920\x86\x9bb\xd0\xc3?'
p10124
tp10125
Rp10126
aa(lp10127
Vpsychological
p10128
ag5
(g9
S'\xef\x80\x98\x10oS\xb5?'
p10129
tp10130
Rp10131
aasS'NEUROPSYCHIATRY'
p10132
(lp10133
(lp10134
g225
ag5
(g9
S'\x13\xc9X\xb4]\x16\xdd?'
p10135
tp10136
Rp10137
aa(lp10138
g331
ag5
(g9
S'\xa54\x92r\xf7\x85\xd0?'
p10139
tp10140
Rp10141
aa(lp10142
g450
ag5
(g9
S'\xf6N\xdb+\xf3\xc8\xc8?'
p10143
tp10144
Rp10145
aa(lp10146
g460
ag5
(g9
S"'\xac\xe2\xa7\xe9-\xc6?"
p10147
tp10148
Rp10149
aa(lp10150
g465
ag5
(g9
S'\xbf(\xf1\xa4\x8c\xb5\xc5?'
p10151
tp10152
Rp10153
aa(lp10154
g455
ag5
(g9
S'I{R\xf7X\x98\xc4?'
p10155
tp10156
Rp10157
aa(lp10158
g811
ag5
(g9
S'\xd1\xb1\xdf2`\xc2\xc2?'
p10159
tp10160
Rp10161
aa(lp10162
g2081
ag5
(g9
S'\xb2}\x1f\xaa\xf5C\xbf?'
p10163
tp10164
Rp10165
aa(lp10166
g816
ag5
(g9
S'\xb2}\x1f\xaa\xf5C\xbf?'
p10167
tp10168
Rp10169
aa(lp10170
g123
ag5
(g9
S'\xb2\xfb=\xa1\xda\x1f\xbd?'
p10171
tp10172
Rp10173
aa(lp10174
g2090
ag5
(g9
S'\x9e/R\xec\x9a\xf6\xba?'
p10175
tp10176
Rp10177
aa(lp10178
g552
ag5
(g9
S'^\x9a=D\x17\xd4\xc8?'
p10179
tp10180
Rp10181
aa(lp10182
Vmuscles
p10183
ag5
(g9
S'\xa7\xd1\xdc\x0flI\xbb?'
p10184
tp10185
Rp10186
aa(lp10187
g2203
ag5
(g9
S'"\xffOp\xa6\x8c\xb7?'
p10188
tp10189
Rp10190
aa(lp10191
Vstabilization
p10192
ag5
(g9
S'+ \xac\x7fD\xd2\xb6?'
p10193
tp10194
Rp10195
aa(lp10196
g528
ag5
(g9
S'\x82\x93\x03\x14\x19\xb8\xb4?'
p10197
tp10198
Rp10199
aa(lp10200
g872
ag5
(g9
S'a\xbb\xd0v#-\xda?'
p10201
tp10202
Rp10203
aa(lp10204
g1679
ag5
(g9
S' u\x0f\x87s\xaa\xd5?'
p10205
tp10206
Rp10207
aa(lp10208
g1684
ag5
(g9
S'D"\x9a\x98\x998\xd5?'
p10209
tp10210
Rp10211
aa(lp10212
g1689
ag5
(g9
S'D"\x9a\x98\x998\xd5?'
p10213
tp10214
Rp10215
aa(lp10216
g390
ag5
(g9
S'\xb2\x01\xacyH\xc7\xd4?'
p10217
tp10218
Rp10219
aa(lp10220
g892
ag5
(g9
S'}\xab]\xa7\xe1\xdd\xcd?'
p10221
tp10222
Rp10223
aa(lp10224
g9247
ag5
(g9
S'\xd9\xb5\xbc\xcb!\x9e\xba?'
p10225
tp10226
Rp10227
aa(lp10228
g1698
ag5
(g9
S'\xdcH\xd5Wo~\xba?'
p10229
tp10230
Rp10231
aa(lp10232
Vrelease
p10233
ag5
(g9
S'\xe44VC\xad$\xba?'
p10234
tp10235
Rp10236
aa(lp10237
g2218
ag5
(g9
S"'R4\x98\xda@\xb9?"
p10238
tp10239
Rp10240
aa(lp10241
Vpartial
p10242
ag5
(g9
S'J\xe4m\xcb~\xc0\xb1?'
p10243
tp10244
Rp10245
aa(lp10246
g6467
ag5
(g9
S'\xb4\x94\xdf\xd5\x8e\xd6\xb0?'
p10247
tp10248
Rp10249
aa(lp10250
g9004
ag5
(g9
S'}w\xaaN\xc3C\xd5?'
p10251
tp10252
Rp10253
aa(lp10254
Vwave
p10255
ag5
(g9
S'5\x9d\xec=\xa6\x9f\xca?'
p10256
tp10257
Rp10258
aa(lp10259
Vactivity
p10260
ag5
(g9
S'\x1eZP\x00\x18\xf5\xc9?'
p10261
tp10262
Rp10263
aa(lp10264
Vawake
p10265
ag5
(g9
S'\x8e\xa4hR\xfc\x84\xc6?'
p10266
tp10267
Rp10268
aa(lp10269
Vdrowsy
p10270
ag5
(g9
S'\xee\xd6w\x08\xf6n\xc1?'
p10271
tp10272
Rp10273
aa(lp10274
Vbrain
p10275
ag5
(g9
S'\x94\xd1\xbe\x83~_\xc1?'
p10276
tp10277
Rp10278
aa(lp10279
g6487
ag5
(g9
S'\x9d\x9b\xcer\xb6^\xc0?'
p10280
tp10281
Rp10282
aa(lp10283
g324
ag5
(g9
S'\xc7Q\xa5\xedII\xbc?'
p10284
tp10285
Rp10286
aa(lp10287
Velectroencephalograph
p10288
ag5
(g9
S'=\xb3\xcaw\xfb\x08\xba?'
p10289
tp10290
Rp10291
aasS'COLORECTAL SURGERY (PROCTOLOGY)'
p10292
(lp10293
(lp10294
g441
ag5
(g9
S'*\xdd\xe4\xda\xbb\xd9\xd8?'
p10295
tp10296
Rp10297
aa(lp10298
g225
ag5
(g9
S'\xe2\xfa\x9d\x91\xcf6\xd7?'
p10299
tp10300
Rp10301
aa(lp10302
g704
ag5
(g9
S'[\x18\x9c\x1bZ\x0b\xd3?'
p10303
tp10304
Rp10305
aa(lp10306
g709
ag5
(g9
S'\xd6mGE\xe6\xd8\xd2?'
p10307
tp10308
Rp10309
aa(lp10310
g723
ag5
(g9
S'[\x18\x9c\x1bZ\x0b\xc3?'
p10311
tp10312
Rp10313
aa(lp10314
g450
ag5
(g9
S'y\x8a\x0bx\xf33\xbf?'
p10315
tp10316
Rp10317
aa(lp10318
g331
ag5
(g9
S'y\x8a\x0bx\xf33\xbf?'
p10319
tp10320
Rp10321
aa(lp10322
g465
ag5
(g9
S'\x1fA\x8dYi\xf5\xbd?'
p10323
tp10324
Rp10325
aa(lp10326
g455
ag5
(g9
S'W~3R\xd5k\xbc?'
p10327
tp10328
Rp10329
aa(lp10330
g4024
ag5
(g9
S'\xb4\xab\xf5\xf2vB\xd5?'
p10331
tp10332
Rp10333
aa(lp10334
g2290
ag5
(g9
S'\x04pT\x9c\xd55\xd2?'
p10335
tp10336
Rp10337
aa(lp10338
Vlarge
p10339
ag5
(g9
S'\x10\xdfF\xf0\xf5~\xd0?'
p10340
tp10341
Rp10342
aa(lp10343
g2300
ag5
(g9
S'\x84$\xc7\xb9&,\xc9?'
p10344
tp10345
Rp10346
aa(lp10347
g390
ag5
(g9
S'\x80[;\xdc\x01\xf1\xd0?'
p10348
tp10349
Rp10350
aa(lp10351
Vanus
p10352
ag5
(g9
S'X\xac\xb0$\x1ey\xc4?'
p10353
tp10354
Rp10355
aa(lp10356
Vrisk
p10357
ag5
(g9
S'\xd3\xb2\xf7\xe8\x9b\x1d\xc3?'
p10358
tp10359
Rp10360
aa(lp10361
Vcolonoscopy
p10362
ag5
(g9
S'\xd3\xb2\xf7\xe8\x9b\x1d\xc3?'
p10363
tp10364
Rp10365
aa(lp10366
g3117
ag5
(g9
S'\xd4q\xf75\xbe\xaf\xc2?'
p10367
tp10368
Rp10369
aa(lp10370
g907
ag5
(g9
S'\x1b\xcfV\x1e\xbc{\xc2?'
p10371
tp10372
Rp10373
aa(lp10374
g1269
ag5
(g9
S'\x0b\xddU\xbd\x82\x06\xc0?'
p10375
tp10376
Rp10377
aa(lp10378
Vcolorectal
p10379
ag5
(g9
S'\xc4\xa9M\xa1\xb2\x87\xbc?'
p10380
tp10381
Rp10382
aa(lp10383
g76
ag5
(g9
S'PK(Gf\xbb\xb9?'
p10384
tp10385
Rp10386
aa(lp10387
g1578
ag5
(g9
S'w\x08X\xad\xa6\xca\xd2?'
p10388
tp10389
Rp10390
aa(lp10391
g319
ag5
(g9
S'\xd8V\xfa[\xd2\xb0\xc4?'
p10392
tp10393
Rp10394
aa(lp10395
Vpolyps
p10396
ag5
(g9
S't\xbab\xf4k\x01\xc1?'
p10397
tp10398
Rp10399
aa(lp10400
Vgrowths
p10401
ag5
(g9
S'az_\xb8s\x91\xbc?'
p10402
tp10403
Rp10404
aasS'ORAL SURGERY (DENTIST ONLY)'
p10405
(lp10406
(lp10407
Vpathology
p10408
ag5
(g9
S'\xadT\xa8\x80b\xcc\xa7?'
p10409
tp10410
Rp10411
aa(lp10412
g5560
ag5
(g9
S'\x18,\x8b\xbb\x18\x92\xa7?'
p10413
tp10414
Rp10415
aa(lp10416
g5565
ag5
(g9
S'\x18,\x8b\xbb\x18\x92\xa7?'
p10417
tp10418
Rp10419
aa(lp10420
Vdevices
p10421
ag5
(g9
S'\x9a\x05{Ia\xf1\xa5?'
p10422
tp10423
Rp10424
aa(lp10425
Vteeth
p10426
ag5
(g9
S'si\r\x98\xc4\x00\xda?'
p10427
tp10428
Rp10429
aa(lp10430
g3778
ag5
(g9
S'\xe5\xc4,\x01`2\xc6?'
p10431
tp10432
Rp10433
aa(lp10434
g7245
ag5
(g9
S'\xa9G]\x9f\xfa\xe1\xc3?'
p10435
tp10436
Rp10437
aa(lp10438
g8170
ag5
(g9
S'v!\r~\xcf\x15\xa5?'
p10439
tp10440
Rp10441
aa(lp10442
Vorthodontic
p10443
ag5
(g9
S'\xde\x14qd\xdd\xab\xa3?'
p10444
tp10445
Rp10446
aa(lp10447
Vjaws
p10448
ag5
(g9
S'\xde\x14qd\xdd\xab\xa3?'
p10449
tp10450
Rp10451
aa(lp10452
Vtongue
p10453
ag5
(g9
S'\xb7iSX-\x0c\xa2?'
p10454
tp10455
Rp10456
aa(lp10457
g1679
ag5
(g9
S'n\x00\xee\xc4\xc7v\xd9?'
p10458
tp10459
Rp10460
aa(lp10461
g1684
ag5
(g9
S'K\x97\xb0]\xf8\xf0\xd8?'
p10462
tp10463
Rp10464
aa(lp10465
g1689
ag5
(g9
S'K\x97\xb0]\xf8\xf0\xd8?'
p10466
tp10467
Rp10468
aa(lp10469
g872
ag5
(g9
S'\xb7\xf6\x97ybn\xd8?'
p10470
tp10471
Rp10472
aa(lp10473
g390
ag5
(g9
S'r\xf5/\\\xa1\xbc\xd6?'
p10474
tp10475
Rp10476
aa(lp10477
g2453
ag5
(g9
S'\x827z\xc0g\x81\xd6?'
p10478
tp10479
Rp10480
aa(lp10481
g1698
ag5
(g9
S'6\xfa\r<\x84Q\xd3?'
p10482
tp10483
Rp10484
aa(lp10485
V45
p10486
ag5
(g9
S'P\x0c\x8c]\x97\xe9\xa4?'
p10487
tp10488
Rp10489
aa(lp10490
g76
ag5
(g9
S'g\x91\xc7xZ\xd9\xa4?'
p10491
tp10492
Rp10493
aa(lp10494
g4582
ag5
(g9
S'q\x02\xcc\xceF\xf8\xa3?'
p10495
tp10496
Rp10497
aa(lp10498
Vclotting
p10499
ag5
(g9
S'&\xcc3\xb1\x17\xaa\xa3?'
p10500
tp10501
Rp10502
aa(lp10503
g2540
ag5
(g9
S'g#,%\xb2\x8b\xa2?'
p10504
tp10505
Rp10506
aa(lp10507
Vtime
p10508
ag5
(g9
S'b\xc7\xc8\xcd\xdbf\xa2?'
p10509
tp10510
Rp10511
aa(lp10512
g7551
ag5
(g9
S'c\xe3O\x1d\x0b \xa2?'
p10513
tp10514
Rp10515
aa(lp10516
Vimpression
p10517
ag5
(g9
S'\xb7`\xbb\x80B\x1f\xc4?'
p10518
tp10519
Rp10520
aa(lp10521
Vcustom
p10522
ag5
(g9
S'0\x11a\xfda\xd3\xc1?'
p10523
tp10524
Rp10525
aa(lp10526
Vouter
p10527
ag5
(g9
S'\x12\x11\x19\xc1\xe3.\xbe?'
p10528
tp10529
Rp10530
aa(lp10531
g2244
ag5
(g9
S'\x05\xb3\x14_\xd6\xcc\xbd?'
p10532
tp10533
Rp10534
aa(lp10535
Vpreparation
p10536
ag5
(g9
S'6L\x14ng\xef\xba?'
p10537
tp10538
Rp10539
aa(lp10540
Vprosthesis
p10541
ag5
(g9
S'H\xed0T\x98T\xb6?'
p10542
tp10543
Rp10544
aa(lp10545
Vjaw
p10546
ag5
(g9
S'\xb7`\xbb\x80B\x1f\xb4?'
p10547
tp10548
Rp10549
aa(lp10550
g7581
ag5
(g9
S'\xc8\xf2\x0f\xb7\x96T\xb3?'
p10551
tp10552
Rp10553
aa(lp10554
Vgrowth
p10555
ag5
(g9
S'L\xc3.\xb9X\xaf\xb2?'
p10556
tp10557
Rp10558
aa(lp10559
g6901
ag5
(g9
S'\xf9N\xdc\x0f\xb6r\xb0?'
p10560
tp10561
Rp10562
aa(lp10563
Vear
p10564
ag5
(g9
S'\x01%\xb5dBq\xac?'
p10565
tp10566
Rp10567
aasS'SPORTS MEDICINE'
p10568
(lp10569
(lp10570
Vviews
p10571
ag5
(g9
S'\xfa\xac\x03W+\xf0\xd4?'
p10572
tp10573
Rp10574
aa(lp10575
g7441
ag5
(g9
S'\xc89\xae\xe2\xfd\x7f\xd4?'
p10576
tp10577
Rp10578
aa(lp10579
g4405
ag5
(g9
S'\xe6\x82n\x06#\xc4\xca?'
p10580
tp10581
Rp10582
aa(lp10583
Vshoulder
p10584
ag5
(g9
S'L\x8e3\x9f|\x89\xc5?'
p10585
tp10586
Rp10587
aa(lp10588
g2275
ag5
(g9
S'i\xabP\x90\x8a\xbe\xc3?'
p10589
tp10590
Rp10591
aa(lp10592
g1191
ag5
(g9
S'ygp\xaf\x15g\xba?'
p10593
tp10594
Rp10595
aa(lp10596
Vintraarticular
p10597
ag5
(g9
S'\x14\xd1\x03\nOk\xb8?'
p10598
tp10599
Rp10600
aa(lp10601
g533
ag5
(g9
S'*\xff\xc1\xc3\x1f\x07\xc2?'
p10602
tp10603
Rp10604
aa(lp10605
Vbetamethasone
p10606
ag5
(g9
S'aN\xeb\xdc\xed+\xb8?'
p10607
tp10608
Rp10609
aa(lp10610
g1679
ag5
(g9
S'1\xfe\x1d\xceg\xad\xd3?'
p10611
tp10612
Rp10613
aa(lp10614
g1684
ag5
(g9
S'\xbc\xd8\t\xd9\x00F\xd3?'
p10615
tp10616
Rp10617
aa(lp10618
g1689
ag5
(g9
S'\xbc\xd8\t\xd9\x00F\xd3?'
p10619
tp10620
Rp10621
aa(lp10622
g390
ag5
(g9
S'\xf3\xc8\x01\x1e\xce\xbf\xd1?'
p10623
tp10624
Rp10625
aa(lp10626
g279
ag5
(g9
S'Fy\x89\xc3\x85\xe8\xcf?'
p10627
tp10628
Rp10629
aa(lp10630
g892
ag5
(g9
S'\xfe\n\x89\xb2?\xd0\xc6?'
p10631
tp10632
Rp10633
aa(lp10634
g1698
ag5
(g9
S'\r\xe4\xaf\x01\xd3\x92\xc0?'
p10635
tp10636
Rp10637
aa(lp10638
Vtriamcinolone
p10639
ag5
(g9
S'\x16(\x9fDD\xb5\xb2?'
p10640
tp10641
Rp10642
aa(lp10643
g299
ag5
(g9
S'\xeb=a\xee\xba\xa6\xd4?'
p10644
tp10645
Rp10646
aa(lp10647
g208
ag5
(g9
S'\x07\x8f\x91\xd2\x95\xc2\xd3?'
p10648
tp10649
Rp10650
aa(lp10651
g213
ag5
(g9
S'M\x84IU\x1c\xa0\xd3?'
p10652
tp10653
Rp10654
aa(lp10655
g309
ag5
(g9
S'\xac\xb5\x99\xde\x9f7\xc5?'
p10656
tp10657
Rp10658
aa(lp10659
g4083
ag5
(g9
S'i\xf9\xf7\xc8\xf5\x0e\xc2?'
p10660
tp10661
Rp10662
aa(lp10663
Vaspiration
p10664
ag5
(g9
S'\xd8\x9f,\x1d\x93\xc9\xc1?'
p10665
tp10666
Rp10667
aa(lp10668
Vacetate
p10669
ag5
(g9
S'\xbf\x06\xc7\x83\x91m\xb0?'
p10670
tp10671
Rp10672
aasS'CARDIAC SURGERY'
p10673
(lp10674
(lp10675
g3906
ag5
(g9
S'\x95\x16\xd6\xad\xb7\xc2\xc4?'
p10676
tp10677
Rp10678
aa(lp10679
Vbypasses
p10680
ag5
(g9
S'T<\xbd1N\x10\xc4?'
p10681
tp10682
Rp10683
aa(lp10684
Vheartlung
p10685
ag5
(g9
S'V(\xe0\xd7\xfb\x02\xbe?'
p10686
tp10687
Rp10688
aa(lp10689
Vrepair
p10690
ag5
(g9
S'\x02\x9d\xaa\xa5\xd6\x13\xbc?'
p10691
tp10692
Rp10693
aa(lp10694
g26
ag5
(g9
S'vW\xa0o\xe4}\xd0?'
p10695
tp10696
Rp10697
aa(lp10698
g36
ag5
(g9
S'\xa8\x13\x1d\xf3\x1d\x94\xce?'
p10699
tp10700
Rp10701
aa(lp10702
g1662
ag5
(g9
S':n\xe7\x8f\xe5\xfb\xbc?'
p10703
tp10704
Rp10705
aa(lp10706
g1041
ag5
(g9
S'H\xb3_E\xee\xf9\xbc?'
p10707
tp10708
Rp10709
aa(lp10710
g1353
ag5
(g9
S'\xdeC\x19\x1d\xb9y\xbc?'
p10711
tp10712
Rp10713
aa(lp10714
g1539
ag5
(g9
S'M\xd2\x8f\xd0\xf0"\xbc?'
p10715
tp10716
Rp10717
aa(lp10718
g158
ag5
(g9
S'\x9c\x03\xbf\xca\x8b]\xb9?'
p10719
tp10720
Rp10721
aa(lp10722
g4343
ag5
(g9
S"'T\x14\xf6\x06\\\xb9?"
p10723
tp10724
Rp10725
aa(lp10726
g6260
ag5
(g9
S'\x9c\x83\xbf\xee\x81\xcb\xd4?'
p10727
tp10728
Rp10729
aa(lp10730
g1679
ag5
(g9
S'U\xbe\xec\x9e\x98\xc3\xc5?'
p10731
tp10732
Rp10733
aa(lp10734
g1684
ag5
(g9
S'\xb5B(%wk\xc5?'
p10735
tp10736
Rp10737
aa(lp10738
g1689
ag5
(g9
S'\xc0\xb6Q\x8e:Q\xc5?'
p10739
tp10740
Rp10741
aa(lp10742
g390
ag5
(g9
S'\xc3t\xa7\xa2\xfbu\xc4?'
p10743
tp10744
Rp10745
aa(lp10746
g4176
ag5
(g9
S'\xe6f0J\xdbc\xc0?'
p10747
tp10748
Rp10749
aa(lp10750
g892
ag5
(g9
S' ^\r\xce\x8a\xc0\xb6?'
p10751
tp10752
Rp10753
aa(lp10754
g9687
ag5
(g9
S'\xb8Y\xfaC\x81\xe0\xe3?'
p10755
tp10756
Rp10757
aa(lp10758
Vbypass
p10759
ag5
(g9
S'#L\xe7\xff^\xba\xd2?'
p10760
tp10761
Rp10762
aa(lp10763
Vcombined
p10764
ag5
(g9
S'o\xdf\x85+\xe6\x81\xc6?'
p10765
tp10766
Rp10767
aa(lp10768
Vharvest
p10769
ag5
(g9
S'aVS\xf0?U\xbc?'
p10770
tp10771
Rp10772
aa(lp10773
Vcoronary
p10774
ag5
(g9
S'\xdc\\\xc7\xa2\x83K\xb9?'
p10775
tp10776
Rp10777
aasS'INTERVENTIONAL PAIN MANAGEMENT'
p10778
(lp10779
(lp10780
g1720
ag5
(g9
S'\xc4\x8e\x96\xf19r\xd4?'
p10781
tp10782
Rp10783
aa(lp10784
g1715
ag5
(g9
S'K\x7f\x18\x909\xfd\xd3?'
p10785
tp10786
Rp10787
aa(lp10788
g1739
ag5
(g9
S'\x88\xea\x17\xbd\x04\x0e\xc1?'
p10789
tp10790
Rp10791
aa(lp10792
g7232
ag5
(g9
S'\xe8\x81o\x07\x9c\x8d\xd5?'
p10793
tp10794
Rp10795
aa(lp10796
g2305
ag5
(g9
S'M\xbaL\x83\x17\x02\xcd?'
p10797
tp10798
Rp10799
aa(lp10800
g1796
ag5
(g9
S'h\x9c+\x13\xe3g\xc3?'
p10801
tp10802
Rp10803
aa(lp10804
g2453
ag5
(g9
S'\xce[,.\xddZ\xc1?'
p10805
tp10806
Rp10807
aa(lp10808
g390
ag5
(g9
S'gx\x1a\\\xc2\x14\xc1?'
p10809
tp10810
Rp10811
aa(lp10812
Vmiddle
p10813
ag5
(g9
S'\xbfA\xbb\x98\xf9\xd0\xc0?'
p10814
tp10815
Rp10816
aa(lp10817
g872
ag5
(g9
S'\x11)CYH\x8f\xc0?'
p10818
tp10819
Rp10820
aa(lp10821
g1679
ag5
(g9
S'\x18\xef\x9e\xafR\x03\xbf?'
p10822
tp10823
Rp10824
aa(lp10825
g1684
ag5
(g9
S'D\xc1\x00\x82\xa9\xfc\xbe?'
p10826
tp10827
Rp10828
aa(lp10829
g1689
ag5
(g9
S'}n\xdd`\xe4s\xbe?'
p10830
tp10831
Rp10832
aa(lp10833
g9242
ag5
(g9
S'\xb8\x84\x95z,\x88\xbb?'
p10834
tp10835
Rp10836
aa(lp10837
g1806
ag5
(g9
S'\x9f\xbb@\xbfyC\xdb?'
p10838
tp10839
Rp10840
aa(lp10841
g299
ag5
(g9
S'\xfd\x05\xa3\xa92\x15\xd4?'
p10842
tp10843
Rp10844
aa(lp10845
g1815
ag5
(g9
S'\xad\xf7\xf2q\x1fY\xd3?'
p10846
tp10847
Rp10848
aa(lp10849
g4078
ag5
(g9
S'\xe8\xa3\x08\xa1\xf2\xeb\xca?'
p10850
tp10851
Rp10852
aa(lp10853
g7290
ag5
(g9
S'\xc8\x9d\xea\xd6\xdc\x83\xc0?'
p10854
tp10855
Rp10856
aa(lp10857
Vroot
p10858
ag5
(g9
S'\xc3R\x8a\x9eS\xbf\xbb?'
p10859
tp10860
Rp10861
aasS'CRNA'
p10862
(lp10863
(lp10864
g7097
ag5
(g9
S'&\xc5\x90gsL\xd7?'
p10865
tp10866
Rp10867
aa(lp10868
g2255
ag5
(g9
S'\xf7\x15p\x1aZ\xfb\xb0?'
p10869
tp10870
Rp10871
aa(lp10872
g2260
ag5
(g9
S'\t\xff\x8cX\xcb:\xb0?'
p10873
tp10874
Rp10875
aa(lp10876
g2270
ag5
(g9
S'\x89E\xbflO\x15\xaa?'
p10877
tp10878
Rp10879
aa(lp10880
g1754
ag5
(g9
S'qi[\x9b\xac\xd9\xa9?'
p10881
tp10882
Rp10883
aa(lp10884
g2265
ag5
(g9
S'\x97%uI\xa2\xb7\xa9?'
p10885
tp10886
Rp10887
aa(lp10888
g2290
ag5
(g9
S'\xbbV\xd8\x10\xdat\xd3?'
p10889
tp10890
Rp10891
aa(lp10892
g2295
ag5
(g9
S'\xb7\x9d\x088,u\xc6?'
p10893
tp10894
Rp10895
aa(lp10896
g2305
ag5
(g9
S'\x06\xcc\xfc{\x10O\xc0?'
p10897
tp10898
Rp10899
aa(lp10900
g5661
ag5
(g9
S'29\xf5k\x0f\xc1\xbf?'
p10901
tp10902
Rp10903
aa(lp10904
Vsurgery
p10905
ag5
(g9
S'\x82\xa7A\x07&\x8d\xb6?'
p10906
tp10907
Rp10908
aa(lp10909
Vknee
p10910
ag5
(g9
S'\x1f\x95\x05p\xd0\xca\xa8?'
p10911
tp10912
Rp10913
aa(lp10914
Vtotal
p10915
ag5
(g9
S'8\xe4\\+\x05}\xa6?'
p10916
tp10917
Rp10918
aa(lp10919
g2310
ag5
(g9
S'\xb5^<H\x86\x8a\xa5?'
p10920
tp10921
Rp10922
aa(lp10923
g7140
ag5
(g9
S'\xec\xa1\x0b\xaa\xd3\xaa\xa2?'
p10924
tp10925
Rp10926
aa(lp10927
g2325
ag5
(g9
S'\x04\x14`\xde\x0c:\xe9?'
p10928
tp10929
Rp10930
aa(lp10931
Vgastrointestinal
p10932
ag5
(g9
S'\xf5\x8b\xb1\x92+\xc6\xc6?'
p10933
tp10934
Rp10935
aa(lp10936
g4078
ag5
(g9
S'S\x00_\x17\xa7\x89\xc4?'
p10937
tp10938
Rp10939
aa(lp10940
Vtract
p10941
ag5
(g9
S'A\xf7\x08qhR\xc4?'
p10942
tp10943
Rp10944
aa(lp10945
g2380
ag5
(g9
S'\xf8-\t\xf6=\xd3\xa0?'
p10946
tp10947
Rp10948
aasS'AUDIOLOGIST (BILLING INDEPENDENTLY)'
p10949
(lp10950
(lp10951
g6409
ag5
(g9
S'Y\x1e\x16@.\x80\xd6?'
p10952
tp10953
Rp10954
aa(lp10955
g6414
ag5
(g9
S'\x1b\x14d\xd6\xc5$\xd5?'
p10956
tp10957
Rp10958
aa(lp10959
g6424
ag5
(g9
S',\xe6\xc8-\xff\x90\xd4?'
p10960
tp10961
Rp10962
aa(lp10963
Vpure
p10964
ag5
(g9
S'\x8f\xf4\xb6H\x04 \xb4?'
p10965
tp10966
Rp10967
aa(lp10968
Vtone
p10969
ag5
(g9
S'l\x96\xfe\xc3F\xce\xb2?'
p10970
tp10971
Rp10972
aa(lp10973
Vthreshold
p10974
ag5
(g9
S'jBY\x16\x05\xe6\xa7?'
p10975
tp10976
Rp10977
aa(lp10978
Vhearing
p10979
ag5
(g9
S'W\x1a\x1fk\x18B\xda?'
p10980
tp10981
Rp10982
aa(lp10983
Veardrum
p10984
ag5
(g9
S'e\x07 4\xb4s\xd5?'
p10985
tp10986
Rp10987
aa(lp10988
g2852
ag5
(g9
S'Le\x88\xa8\x97\x05\xd4?'
p10989
tp10990
Rp10991
aa(lp10992
g376
ag5
(g9
S'y\xf4\x87\xb0\x8c\x1b\xcf?'
p10993
tp10994
Rp10995
aa(lp10996
g6447
ag5
(g9
S'\xe3\xbf\xe3\x03\xe4,\xcb?'
p10997
tp10998
Rp10999
aa(lp11000
Vtesting
p11001
ag5
(g9
S'{LG\x93\xe43\xc3?'
p11002
tp11003
Rp11004
aa(lp11005
Vbalance
p11006
ag5
(g9
S'O\xac-\xc6\xe9\x0b\xb5?'
p11007
tp11008
Rp11009
aa(lp11010
g8968
ag5
(g9
S'\x8fF\xdc\xc3g3\xb4?'
p11011
tp11012
Rp11013
aa(lp11014
g5201
ag5
(g9
S'9\x05\x1bA\x8f\xb3\xb1?'
p11015
tp11016
Rp11017
aa(lp11018
Vabnormal
p11019
ag5
(g9
S'S\x99\xd0\xf9\x83\xab\xaf?'
p11020
tp11021
Rp11022
aa(lp11023
Vmovement
p11024
ag5
(g9
S'\x0b\xac\x01\xea\x1b\xbf\xad?'
p11025
tp11026
Rp11027
aa(lp11028
Vfunction
p11029
ag5
(g9
S'6\x13\xf2\xae\x1f\x96\xb0?'
p11030
tp11031
Rp11032
aa(lp11033
Vmuscle
p11034
ag5
(g9
S'\xd7D\x8c\xca\x9c\x16\xaf?'
p11035
tp11036
Rp11037
aa(lp11038
Vcochlear
p11039
ag5
(g9
S'\x15x\xaa\xfb\x94\r\xab?'
p11040
tp11041
Rp11042
aa(lp11043
Vconduction
p11044
ag5
(g9
S'\xff\xf8\x0c\xbf|\xc6\xd4?'
p11045
tp11046
Rp11047
aa(lp11048
Vprobe
p11049
ag5
(g9
S'y\x11\xe4\xfa\xc2\\\xca?'
p11050
tp11051
Rp11052
aa(lp11053
Vbone
p11054
ag5
(g9
S'\xd9\xc3Y\x1e\xc5\xe7\xc4?'
p11055
tp11056
Rp11057
aa(lp11058
g4078
ag5
(g9
S'>\xc7G8\xc9}\xb6?'
p11059
tp11060
Rp11061
aasS'GENERAL SURGERY'
p11062
(lp11063
(lp11064
g225
ag5
(g9
S'G8\xfa\xcc\xcdC\xdb?'
p11065
tp11066
Rp11067
aa(lp11068
g723
ag5
(g9
S'\x08\x05\xb0~\xa2g\xc5?'
p11069
tp11070
Rp11071
aa(lp11072
g475
ag5
(g9
S'\xdd\x021.\x14\xb9\xb7?'
p11073
tp11074
Rp11075
aa(lp11076
g26
ag5
(g9
S'w\xd4\xcc\xd0 \xf9\xdc?'
p11077
tp11078
Rp11079
aa(lp11080
g46
ag5
(g9
S'$[\xdc@R\x9f\xd2?'
p11081
tp11082
Rp11083
aa(lp11084
g51
ag5
(g9
S"\x19'\xc45\xadn\xd2?"
p11085
tp11086
Rp11087
aa(lp11088
g4024
ag5
(g9
S'rMh\xe2\xc7\xd0\xb9?'
p11089
tp11090
Rp11091
aa(lp11092
g400
ag5
(g9
S'*~;\xa2\xb2\xed\xc8?'
p11093
tp11094
Rp11095
aa(lp11096
g877
ag5
(g9
S'\x93\x8e\x18(R\xd8\xc8?'
p11097
tp11098
Rp11099
aa(lp11100
g395
ag5
(g9
S'\xe25\x8db\xb98\xc8?'
p11101
tp11102
Rp11103
aa(lp11104
g405
ag5
(g9
S'\x01}T\xc7\x15\xf3\xc7?'
p11105
tp11106
Rp11107
aa(lp11108
Vendoscope
p11109
ag5
(g9
S'\x10l\xc0\xe9q9\xc1?'
p11110
tp11111
Rp11112
aa(lp11113
g1428
ag5
(g9
S'\x87\rA`-Q\xba?'
p11114
tp11115
Rp11116
aa(lp11117
g882
ag5
(g9
S'\x97\xb4\xd1.\x7f\x94\xb7?'
p11118
tp11119
Rp11120
aa(lp11121
Vgallbladder
p11122
ag5
(g9
S'\x1a\xbaWf\x98W\xb2?'
p11123
tp11124
Rp11125
aa(lp11126
Vstomach
p11127
ag5
(g9
S'\xb3JG \xd6\xd5\xaf?'
p11128
tp11129
Rp11130
aa(lp11131
g1578
ag5
(g9
S'q\xd5o\x88\xe5n\xd3?'
p11132
tp11133
Rp11134
aa(lp11135
g1458
ag5
(g9
S'\x83\xf63\xd3{\xc6\xd1?'
p11136
tp11137
Rp11138
aa(lp11139
g319
ag5
(g9
S'\x18q_\x13\x16\x99\xc0?'
p11140
tp11141
Rp11142
aa(lp11143
Vremoval
p11144
ag5
(g9
S'^\xb0\xc6 \xf6\xff\xb9?'
p11145
tp11146
Rp11147
aa(lp11148
g4083
ag5
(g9
S'\xb1n\x87\xa3\x02O\xad?'
p11149
tp11150
Rp11151
aasS'SLIDE PREPARATION FACILITY'
p11152
(lp11153
(lp11154
Videntify
p11155
ag5
(g9
S'8A\x1d\xdc5b\xd7?'
p11156
tp11157
Rp11158
aa(lp11159
Vstained
p11160
ag5
(g9
S'\xbez\xb9\x1a\xa6\xc8\xd6?'
p11161
tp11162
Rp11163
aa(lp11164
Vslides
p11165
ag5
(g9
S'\xbez\xb9\x1a\xa6\xc8\xd6?'
p11166
tp11167
Rp11168
aa(lp11169
Vorganisms
p11170
ag5
(g9
S'\xabK\x1c\x90\x99\xf0\xd3?'
p11171
tp11172
Rp11173
aa(lp11174
Vspecial
p11175
ag5
(g9
S'\xed\xa5(\x19\x970\xd3?'
p11176
tp11177
Rp11178
aa(lp11179
g7468
ag5
(g9
S'_jto\xd9\x96\xd1?'
p11180
tp11181
Rp11182
aa(lp11183
Vspecimen
p11184
ag5
(g9
S'\x00\x84\x8d\xc3%\xb9\xce?'
p11185
tp11186
Rp11187
aa(lp11188
g7483
ag5
(g9
S'\xd8\x99\xec\xf2\xc9\xb8\xcc?'
p11189
tp11190
Rp11191
aa(lp11192
g7488
ag5
(g9
S'\x0c\xf0o\xaa\x15K\xcb?'
p11193
tp11194
Rp11195
aa(lp11196
Vintermediate
p11197
ag5
(g9
S'\xb30\xc8C\xdb\xf4\xca?'
p11198
tp11199
Rp11200
aa(lp11201
g1390
ag5
(g9
S'\xf4\xc7Mm\xe6q\xc5?'
p11202
tp11203
Rp11204
aa(lp11205
Vreport
p11206
ag5
(g9
S'\xf4\xc7Mm\xe6q\xc5?'
p11207
tp11208
Rp11209
aa(lp11210
g7478
ag5
(g9
S'\xa5Q\x04h\x9e\xfd\xc4?'
p11211
tp11212
Rp11213
aa(lp11214
Vinterpretation
p11215
ag5
(g9
S'\x0eI\xd4\xff\xc5\xc4\xc4?'
p11216
tp11217
Rp11218
aa(lp11219
Vincluding
p11220
ag5
(g9
S'\xe3\xef\xd2E\x88\xb4\xc3?'
p11221
tp11222
Rp11223
aa(lp11224
g2300
ag5
(g9
S'\xf1\xbb~\xcfq\xf6\xc1?'
p11225
tp11226
Rp11227
aasS'OSTEOPATHIC MANIPULATIVE MEDICINE'
p11228
(lp11229
(lp11230
Vosteopathic
p11231
ag5
(g9
S'V\x01\x92\xde3u\xd7?'
p11232
tp11233
Rp11234
aa(lp11235
Vmanipulative
p11236
ag5
(g9
S'\x98 \xcc#\xf2\xc4\xd5?'
p11237
tp11238
Rp11239
aa(lp11240
g441
ag5
(g9
S'\xe95\x01\x97\xe0\xa0\xd4?'
p11241
tp11242
Rp11243
aa(lp11244
g938
ag5
(g9
S'O\xd3\x03\xd6;\x86\xd0?'
p11245
tp11246
Rp11247
aa(lp11248
Vbody
p11249
ag5
(g9
S'\x877\xf2=\xba\x99\xcb?'
p11250
tp11251
Rp11252
aa(lp11253
g948
ag5
(g9
S'U\x9ej.\xfc\xbe\xc6?'
p11254
tp11255
Rp11256
aa(lp11257
g450
ag5
(g9
S'\xe3X\xaa\xfc\xb21\xbd?'
p11258
tp11259
Rp11260
aa(lp11261
g465
ag5
(g9
S'\xef\xd1\x8a\xf9\x110\xb4?'
p11262
tp11263
Rp11264
aa(lp11265
g460
ag5
(g9
S'+\xafa]\xff\xef\xae?'
p11266
tp11267
Rp11268
aa(lp11269
g36
ag5
(g9
S'DOg\xdb\x92\x12\xd8?'
p11270
tp11271
Rp11272
aa(lp11273
g71
ag5
(g9
S'\xdd\x05\x86L\x9b\xe6\xc7?'
p11274
tp11275
Rp11276
aa(lp11277
Vanesthesia
p11278
ag5
(g9
S'}\tjLa0\xbe?'
p11279
tp11280
Rp11281
aa(lp11282
g1041
ag5
(g9
S'\xd5\xd1\xd2jn\xbf\xbd?'
p11283
tp11284
Rp11285
aa(lp11286
g1353
ag5
(g9
S"@'\xc4\xb6\xe1\x14\xbc?"
p11287
tp11288
Rp11289
aa(lp11290
g269
ag5
(g9
S'\x99lX\x82\xbc\x19\xb4?'
p11291
tp11292
Rp11293
aa(lp11294
g1016
ag5
(g9
S'\xac2\xf7ck\xc3\xb3?'
p11295
tp11296
Rp11297
aa(lp11298
g495
ag5
(g9
S'q\xa4\xe62\xf6\xa4\xb3?'
p11299
tp11300
Rp11301
aa(lp11302
g1679
ag5
(g9
S'\x8c\xa9\xca\xf4F\xdc\xd0?'
p11303
tp11304
Rp11305
aa(lp11306
g1689
ag5
(g9
S'\\\xef\xe9p\xad\x83\xd0?'
p11307
tp11308
Rp11309
aa(lp11310
g892
ag5
(g9
S'\x03?\xd1\xcc\xe0\x81\xc9?'
p11311
tp11312
Rp11313
aa(lp11314
g582
ag5
(g9
S'\x1e\x93\xb3k\x9b\t\xb9?'
p11315
tp11316
Rp11317
aa(lp11318
g592
ag5
(g9
S'\xb9\n*\x85\xdd\xb0\xb7?'
p11319
tp11320
Rp11321
aa(lp11322
g612
ag5
(g9
S'hA\x84\x82\x83/\xb5?'
p11323
tp11324
Rp11325
aa(lp11326
g1578
ag5
(g9
S'@\x1b<4\x00\t\xd5?'
p11327
tp11328
Rp11329
aa(lp11330
g1458
ag5
(g9
S'\xd7;\xea\x96S\x12\xd1?'
p11331
tp11332
Rp11333
aa(lp11334
g319
ag5
(g9
S'\xf4H\xa3\x89\xd6\xd1\xb6?'
p11335
tp11336
Rp11337
aa(lp11338
g4078
ag5
(g9
S'LR[y\x91\r\xaa?'
p11339
tp11340
Rp11341
aasS'HAND SURGERY'
p11342
(lp11343
(lp11344
g225
ag5
(g9
S'\x9d0r\xa5$-\xce?'
p11345
tp11346
Rp11347
aa(lp11348
Vtendon
p11349
ag5
(g9
S'\x08\xa9\x05\xba\x16\x80\xcd?'
p11350
tp11351
Rp11352
aa(lp11353
Vfingers
p11354
ag5
(g9
S'S\x7f\n/L2\xbe?'
p11355
tp11356
Rp11357
aa(lp11358
g3783
ag5
(g9
S'\x16G\xbdcfB\xd1?'
p11359
tp11360
Rp11361
aa(lp11362
g71
ag5
(g9
S'\x16\xcc\xa2\xa9\xdd\xb2\xcf?'
p11363
tp11364
Rp11365
aa(lp11366
g3788
ag5
(g9
S'\xf2\x17\xd9v[\x9c\xcf?'
p11367
tp11368
Rp11369
aa(lp11370
g3778
ag5
(g9
S'\xba\xca\x9d\n\n5\xcf?'
p11371
tp11372
Rp11373
aa(lp11374
Vcast
p11375
ag5
(g9
S'\xfa\xcf\x80\xf2u\x8b\xcb?'
p11376
tp11377
Rp11378
aa(lp11379
g9262
ag5
(g9
S'<\xc5\xf9~*%\xca?'
p11380
tp11381
Rp11382
aa(lp11383
g9257
ag5
(g9
S';\xeb \xecV\x8d\xc5?'
p11384
tp11385
Rp11386
aa(lp11387
Vshort
p11388
ag5
(g9
S')\xfc\x00\x8dE^\xc4?'
p11389
tp11390
Rp11391
aa(lp11392
g299
ag5
(g9
S'\xa1\x99\xf9\\\x1c\x05\xd1?'
p11393
tp11394
Rp11395
aa(lp11396
g208
ag5
(g9
S'\x87.d+\x18\n\xd0?'
p11397
tp11398
Rp11399
aa(lp11400
g1578
ag5
(g9
S'A\xacU4\xf0\xdb\xce?'
p11401
tp11402
Rp11403
aa(lp11404
g2235
ag5
(g9
S'A\xacU4\xf0\xdb\xce?'
p11405
tp11406
Rp11407
aa(lp11408
g2923
ag5
(g9
S'\xa9%=\x00\x118\xce?'
p11409
tp11410
Rp11411
aa(lp11412
g1458
ag5
(g9
S'\x117\xbe;,\xbd\xcb?'
p11413
tp11414
Rp11415
aa(lp11416
g2244
ag5
(g9
S'I#Q\x7f\xbb2\xc1?'
p11417
tp11418
Rp11419
aa(lp11420
Vligament
p11421
ag5
(g9
S"t\x85\x82y\xdd'\xc1?"
p11422
tp11423
Rp11424
aa(lp11425
g309
ag5
(g9
S'+C\x1c\xad\xd4\x01\xc0?'
p11426
tp11427
Rp11428
aa(lp11429
Vrelease
p11430
ag5
(g9
S'\x8cb\x99(\xe3h\xbf?'
p11431
tp11432
Rp11433
aa(lp11434
Vmedian
p11435
ag5
(g9
S'\xae\xc5M2{d\xbf?'
p11436
tp11437
Rp11438
aasS'CERTIFIED CLINICAL NURSE SPECIALIST'
p11439
(lp11440
(lp11441
g225
ag5
(g9
S'\t\x0eL\x8a^C\xdd?'
p11442
tp11443
Rp11444
aa(lp11445
g480
ag5
(g9
S'\xa3\x10\x05\xf1g\x91\xc3?'
p11446
tp11447
Rp11448
aa(lp11449
g485
ag5
(g9
S'\xa3\x10\x05\xf1g\x91\xc3?'
p11450
tp11451
Rp11452
aa(lp11453
g2090
ag5
(g9
S'\x13\x8b\xef\xec\xdf\x84\xc1?'
p11454
tp11455
Rp11456
aa(lp11457
g2792
ag5
(g9
S'E$\x9b\x89\xf8?\xb4?'
p11458
tp11459
Rp11460
aa(lp11461
g26
ag5
(g9
S'\xce6\x88\xbb\x81\xd3\xdc?'
p11462
tp11463
Rp11464
aa(lp11465
g1244
ag5
(g9
S'\xc9\xcfh<@\n\xb0?'
p11466
tp11467
Rp11468
aa(lp11469
g1684
ag5
(g9
S'\x96_\xc5<]\xaa\xd6?'
p11470
tp11471
Rp11472
aa(lp11473
g390
ag5
(g9
S'\xf9k\xd4+\x1f\xcd\xd3?'
p11474
tp11475
Rp11476
aa(lp11477
g1679
ag5
(g9
S'2\x96\xe3f\x94\x07\xd0?'
p11478
tp11479
Rp11480
aa(lp11481
g1689
ag5
(g9
S'\xc4q1,\xb1f\xcf?'
p11482
tp11483
Rp11484
aa(lp11485
g892
ag5
(g9
S'pc\x8f3@*\xcf?'
p11486
tp11487
Rp11488
aa(lp11489
g2976
ag5
(g9
S'u\x8d\xcf\x06\x90\xb1\xc5?'
p11490
tp11491
Rp11492
aa(lp11493
g2981
ag5
(g9
S'o\x03n8\xa8\xa2\xc4?'
p11494
tp11495
Rp11496
aa(lp11497
g2986
ag5
(g9
S'l>=Q4\x1b\xc4?'
p11498
tp11499
Rp11500
aa(lp11501
g1282
ag5
(g9
S'}\xc4,\xcfw\xb8\xce?'
p11502
tp11503
Rp11504
aa(lp11505
g916
ag5
(g9
S'&\xc9\x06T\xc2-\xc6?'
p11506
tp11507
Rp11508
aa(lp11509
g926
ag5
(g9
S'\xaf\x07\xa9H\xae\x08\xc5?'
p11510
tp11511
Rp11512
aa(lp11513
g430
ag5
(g9
S'\xael#"\xd5^\xc4?'
p11514
tp11515
Rp11516
aa(lp11517
g921
ag5
(g9
S"\x84'Q\x1f\xda\xe3\xc3?"
p11518
tp11519
Rp11520
aa(lp11521
g3465
ag5
(g9
S'\x02&\xf4YP\xbe\xbb?'
p11522
tp11523
Rp11524
aa(lp11525
g3460
ag5
(g9
S'\xd9\xf1\xc2\xfa\x02<\xb5?'
p11526
tp11527
Rp11528
aasS'PATHOLOGY'
p11529
(lp11530
(lp11531
Vstained
p11532
ag5
(g9
S'\n\xe0L\xcb\x9d\xc1\xc5?'
p11533
tp11534
Rp11535
aa(lp11536
Vslides
p11537
ag5
(g9
S'\n\xe0L\xcb\x9d\xc1\xc5?'
p11538
tp11539
Rp11540
aa(lp11541
Vspecial
p11542
ag5
(g9
S'\xdf\xbeB\xcb"\xb4\xc2?'
p11543
tp11544
Rp11545
aa(lp11546
Vexamine
p11547
ag5
(g9
S'5\x85\x08\x17(\x11\xb7?'
p11548
tp11549
Rp11550
aa(lp11551
g1390
ag5
(g9
S'cIe<-\xd9\xd8?'
p11552
tp11553
Rp11554
aa(lp11555
g7483
ag5
(g9
S';\xc2\x9f\xe6-n\xd2?'
p11556
tp11557
Rp11558
aa(lp11559
g11184
ag5
(g9
S'J\xf8!"\x9fL\xc9?'
p11560
tp11561
Rp11562
aa(lp11563
g5984
ag5
(g9
S'T\xaeH\xa5N9\xc2?'
p11564
tp11565
Rp11566
aa(lp11567
Vimmunologic
p11568
ag5
(g9
S'y\xab_\x92J\x04\xc0?'
p11569
tp11570
Rp11571
aa(lp11572
g3117
ag5
(g9
S'\x9f\r\xe8\xc4c\xb7\xd7?'
p11573
tp11574
Rp11575
aa(lp11576
Vcell
p11577
ag5
(g9
S'\xda\x0b.Wn\x89\xc2?'
p11578
tp11579
Rp11580
aa(lp11581
Vtechnique
p11582
ag5
(g9
S'z\x1dkR\x18r\xc1?'
p11583
tp11584
Rp11585
aa(lp11586
g173
ag5
(g9
S'\xff\xd9\xfb\x0b\xa5\x12\xc1?'
p11587
tp11588
Rp11589
aa(lp11590
g6277
ag5
(g9
S'~2\xf4}\r\x13\xc0?'
p11591
tp11592
Rp11593
aa(lp11594
g168
ag5
(g9
S'\x138\xe4\x8bH\xf5\xbd?'
p11595
tp11596
Rp11597
aa(lp11598
Vremoving
p11599
ag5
(g9
S'\xb4\x97\xdf\xd4\x82\x97\xbd?'
p11600
tp11601
Rp11602
aa(lp11603
Vaspirate
p11604
ag5
(g9
S'\x17\x8fBe\xe7\xcc\xbb?'
p11605
tp11606
Rp11607
aa(lp11608
Vhigh
p11609
ag5
(g9
S'\xd0\x9d\xc3T#w\xb5?'
p11610
tp11611
Rp11612
aa(lp11613
Vpathology
p11614
ag5
(g9
S'\xeb\xc8\x93>\xd6{\xdf?'
p11615
tp11616
Rp11617
aa(lp11618
Vcomplexity
p11619
ag5
(g9
S'\x9b7\x04\xfa\xae\xea\xce?'
p11620
tp11621
Rp11622
aa(lp11623
g4078
ag5
(g9
S'\x8b\x86\x85\xf9S*\xc7?'
p11624
tp11625
Rp11626
aa(lp11627
Videntify
p11628
ag5
(g9
S'b\x1d\r\x8b\x04\xfb\xb5?'
p11629
tp11630
Rp11631
aasS'PHYSICIAN ASSISTANT'
p11632
(lp11633
(lp11634
g699
ag5
(g9
S'\x06&$R\xe2\x83\xdb?'
p11635
tp11636
Rp11637
aa(lp11638
g723
ag5
(g9
S'x\xd0\xcd\xf8\x8cO\xcc?'
p11639
tp11640
Rp11641
aa(lp11642
g2265
ag5
(g9
S'\xef\xd0\x91Z\xb0\xe6\xb9?'
p11643
tp11644
Rp11645
aa(lp11646
g10571
ag5
(g9
S"\xc1\xdd'\xbd\x88\xfc\xb2?"
p11647
tp11648
Rp11649
aa(lp11650
g7441
ag5
(g9
S'dF+sX\x87\xb2?'
p11651
tp11652
Rp11653
aa(lp11654
g3712
ag5
(g9
S'\xcd\xa8R\xd8,5\xc7?'
p11655
tp11656
Rp11657
aa(lp11658
g3717
ag5
(g9
S'\x0cJ\x0e|L\xde\xc6?'
p11659
tp11660
Rp11661
aa(lp11662
g3722
ag5
(g9
S'\x0cJ\x0e|L\xde\xc6?'
p11663
tp11664
Rp11665
aa(lp11666
g71
ag5
(g9
S'H\xa1\r\xa3!1\xba?'
p11667
tp11668
Rp11669
aa(lp11670
g5979
ag5
(g9
S'\xbf@\xcdl\x94\xa9\xb6?'
p11671
tp11672
Rp11673
aa(lp11674
g5984
ag5
(g9
S'\xda\xaf1\x7fCb\xb4?'
p11675
tp11676
Rp11677
aa(lp11678
g2453
ag5
(g9
S'\n\xddp\xc3b-\xd6?'
p11679
tp11680
Rp11681
aa(lp11682
g1679
ag5
(g9
S'\x0ft\x8d\xc6\xa0\xc6\xd2?'
p11683
tp11684
Rp11685
aa(lp11686
g1689
ag5
(g9
S'B6\xa3\x86\xf6c\xd2?'
p11687
tp11688
Rp11689
aa(lp11690
g390
ag5
(g9
S'6L\xe9\xb6\xc0\xc9\xd1?'
p11691
tp11692
Rp11693
aa(lp11694
g1698
ag5
(g9
S'\xd8\xbf\xda\xfc\xc5\xbc\xb3?'
p11695
tp11696
Rp11697
aa(lp11698
g400
ag5
(g9
S'Or\xf6\xba`b\xb3?'
p11699
tp11700
Rp11701
aa(lp11702
g208
ag5
(g9
S'X\xf64\x92\x8d\x8d\xd7?'
p11703
tp11704
Rp11705
aa(lp11706
g2006
ag5
(g9
S'\xbe\xf1O\x80\xady\xbb?'
p11707
tp11708
Rp11709
aa(lp11710
g1491
ag5
(g9
S'\xfbo}_V;\xb8?'
p11711
tp11712
Rp11713
aa(lp11714
g1282
ag5
(g9
S'"?6<A\xe9\xb7?'
p11715
tp11716
Rp11717
aa(lp11718
g921
ag5
(g9
S'?\xe5\x17\x0c\xcbV\xb1?'
p11719
tp11720
Rp11721
aasS'ORTHOPEDIC SURGERY'
p11722
(lp11723
(lp11724
g10571
ag5
(g9
S'\x92{\x91r\xaf)\xd8?'
p11725
tp11726
Rp11727
aa(lp11728
g3687
ag5
(g9
S'\x08\xe4\xac\xb7\x16\xc7\xc8?'
p11729
tp11730
Rp11731
aa(lp11732
g4405
ag5
(g9
S'\xdc|=\xc0\x87\x8a\xc6?'
p11733
tp11734
Rp11735
aa(lp11736
g10584
ag5
(g9
S'e\xef\xb5\x07\xc5[\xbd?'
p11737
tp11738
Rp11739
aa(lp11740
g230
ag5
(g9
S'\xc8\x9c}[;\xe3\xb8?'
p11741
tp11742
Rp11743
aa(lp11744
g26
ag5
(g9
S'\x18\xa8;\xfa\xa4\xcb\xd1?'
p11745
tp11746
Rp11747
aa(lp11748
g36
ag5
(g9
S'\xba\x9d\x83\xd5\xe4\xf8\xd0?'
p11749
tp11750
Rp11751
aa(lp11752
g46
ag5
(g9
S'\x9c\xc1$@\xa0I\xcf?'
p11753
tp11754
Rp11755
aa(lp11756
g31
ag5
(g9
S'\xcd\x0c\xafR\xa5F\xcf?'
p11757
tp11758
Rp11759
aa(lp11760
g51
ag5
(g9
S'\x92\x95d\xc3\xe5\xf7\xce?'
p11761
tp11762
Rp11763
aa(lp11764
g56
ag5
(g9
S'\xe0\x8b\x0e\xacN\xe9\xc2?'
p11765
tp11766
Rp11767
aa(lp11768
g528
ag5
(g9
S'\x1a(\xfb\xc2\xb5+\xbe?'
p11769
tp11770
Rp11771
aa(lp11772
g66
ag5
(g9
S'd\x01\xc6\x87$\x1e\xb9?'
p11773
tp11774
Rp11775
aa(lp11776
g533
ag5
(g9
S'\xd8\x08v\xfe\\\xcf\xb8?'
p11777
tp11778
Rp11779
aa(lp11780
g2733
ag5
(g9
S'B\xa6]\xeb\x0b\xb8\xd7?'
p11781
tp11782
Rp11783
aa(lp11784
g390
ag5
(g9
S'\xf7\x84\xb1c\xf5\xe1\xcc?'
p11785
tp11786
Rp11787
aa(lp11788
Vhip
p11789
ag5
(g9
S'\xaa\x1b@\x92G2\xba?'
p11790
tp11791
Rp11792
aa(lp11793
g299
ag5
(g9
S'\xf7j,\x92\xfe\x15\xd4?'
p11794
tp11795
Rp11796
aa(lp11797
g7187
ag5
(g9
S'\xdb\xa8\x8c\x83\xfb>\xc5?'
p11798
tp11799
Rp11800
aa(lp11801
g309
ag5
(g9
S'A\xc8\x89\xff0\x0f\xbd?'
p11802
tp11803
Rp11804
aas.